ddinit.asm:
     1                          			org 0100h
     2                          
     3   000000 31690c                              ld      sp,$0c69                        ;[0100] 31 69 0c
     4   000003 011800                              ld      bc,$0018                        ;[0103] 01 18 00
     5   000006 c5                                  push    bc                              ;[0106] c5
     6   000007 cd1507                              call    $0715                           ;[0107] cd 15 07
     7   00000a 0d                                  dec     c                               ;[010a] 0d
     8   00000b 0a                                  ld      a,(bc)                          ;[010b] 0a
     9   00000c 00                                  nop                                     ;[010c] 00
    10   00000d c1                                  pop     bc                              ;[010d] c1
    11   00000e e3                                  ex      (sp),hl                         ;[010e] e3
    12   00000f e3                                  ex      (sp),hl                         ;[010f] e3
    13   000010 e3                                  ex      (sp),hl                         ;[0110] e3
    14   000011 e3                                  ex      (sp),hl                         ;[0111] e3
    15   000012 10fa                                djnz    $010e                           ;[0112] 10 fa
    16   000014 0d                                  dec     c                               ;[0114] 0d
    17   000015 20ef                                jr      nz,$0106                        ;[0115] 20 ef
    18   000017 cd1507                              call    $0715                           ;[0117] cd 15 07
    19   00001a 2e2e                                ld      l,$2e                           ;[011a] 2e 2e
    20   00001c 2e2e                                ld      l,$2e                           ;[011c] 2e 2e
    21   00001e 2041                                jr      nz,$0161                        ;[011e] 20 41
    22   000020 54                                  ld      d,h                             ;[0120] 54
    23   000021 52                                  ld      d,d                             ;[0121] 52
    24   000022 3830                                jr      c,$0154                         ;[0122] 38 30
    25   000024 3030                                jr      nc,$0156                        ;[0124] 30 30
    26   000026 2044                                jr      nz,$016c                        ;[0126] 20 44
    27   000028 69                                  ld      l,c                             ;[0128] 69
    28   000029 73                                  ld      (hl),e                          ;[0129] 73
    29   00002a 6b                                  ld      l,e                             ;[012a] 6b
    30   00002b 2046                                jr      nz,$0173                        ;[012b] 20 46
    31   00002d 6f                                  ld      l,a                             ;[012d] 6f
    32   00002e 72                                  ld      (hl),d                          ;[012e] 72
    33   00002f 6d                                  ld      l,l                             ;[012f] 6d
    34   000030 61                                  ld      h,c                             ;[0130] 61
    35   000031 74                                  ld      (hl),h                          ;[0131] 74
    36   000032 74                                  ld      (hl),h                          ;[0132] 74
    37   000033 65                                  ld      h,l                             ;[0133] 65
    38   000034 72                                  ld      (hl),d                          ;[0134] 72
    39   000035 2020                                jr      nz,$0157                        ;[0135] 20 20
    40   000037 322e31                              ld      ($312e),a                       ;[0137] 32 2e 31
    41   00003a 202e                                jr      nz,$016a                        ;[013a] 20 2e
    42   00003c 2e2e                                ld      l,$2e                           ;[013c] 2e 2e
    43   00003e 2e0d                                ld      l,$0d                           ;[013e] 2e 0d
    44   000040 0a                                  ld      a,(bc)                          ;[0140] 0a
    45   000041 0a                                  ld      a,(bc)                          ;[0141] 0a
    46   000042 00                                  nop                                     ;[0142] 00
    47   000043 3a1802                              ld      a,($0218)                       ;[0143] 3a 18 02
    48   000046 b7                                  or      a                               ;[0146] b7
    49   000047 c21902                              jp      nz,$0219                        ;[0147] c2 19 02
    50   00004a 3e01                                ld      a,$01                           ;[014a] 3e 01
    51   00004c 321802                              ld      ($0218),a                       ;[014c] 32 18 02
    52   00004f cd1507                              call    $0715                           ;[014f] cd 15 07
    53   000052 54                                  ld      d,h                             ;[0152] 54
    54   000053 68                                  ld      l,b                             ;[0153] 68
    55   000054 69                                  ld      l,c                             ;[0154] 69
    56   000055 73                                  ld      (hl),e                          ;[0155] 73
    57   000056 2070                                jr      nz,$01c8                        ;[0156] 20 70
    58   000058 72                                  ld      (hl),d                          ;[0158] 72
    59   000059 6f                                  ld      l,a                             ;[0159] 6f
    60   00005a 67                                  ld      h,a                             ;[015a] 67
    61   00005b 72                                  ld      (hl),d                          ;[015b] 72
    62   00005c 61                                  ld      h,c                             ;[015c] 61
    63   00005d 6d                                  ld      l,l                             ;[015d] 6d
    64   00005e 2065                                jr      nz,$01c5                        ;[015e] 20 65
    65   000060 72                                  ld      (hl),d                          ;[0160] 72
    66   000061 61                                  ld      h,c                             ;[0161] 61
    67   000062 73                                  ld      (hl),e                          ;[0162] 73
    68   000063 65                                  ld      h,l                             ;[0163] 65
    69   000064 73                                  ld      (hl),e                          ;[0164] 73
    70   000065 2061                                jr      nz,$01c8                        ;[0165] 20 61
    71   000067 6c                                  ld      l,h                             ;[0167] 6c
    72   000068 6c                                  ld      l,h                             ;[0168] 6c
    73   000069 2072                                jr      nz,$01dd                        ;[0169] 20 72
    74   00006b 65                                  ld      h,l                             ;[016b] 65
    75   00006c 63                                  ld      h,e                             ;[016c] 63
    76   00006d 6f                                  ld      l,a                             ;[016d] 6f
    77   00006e 72                                  ld      (hl),d                          ;[016e] 72
    78   00006f 64                                  ld      h,h                             ;[016f] 64
    79   000070 65                                  ld      h,l                             ;[0170] 65
    80   000071 64                                  ld      h,h                             ;[0171] 64
    81   000072 2064                                jr      nz,$01d8                        ;[0172] 20 64
    82   000074 61                                  ld      h,c                             ;[0174] 61
    83   000075 74                                  ld      (hl),h                          ;[0175] 74
    84   000076 61                                  ld      h,c                             ;[0176] 61
    85   000077 0d                                  dec     c                               ;[0177] 0d
    86   000078 0a                                  ld      a,(bc)                          ;[0178] 0a
    87   000079 69                                  ld      l,c                             ;[0179] 69
    88   00007a 6e                                  ld      l,(hl)                          ;[017a] 6e
    89   00007b 2074                                jr      nz,$01f1                        ;[017b] 20 74
    90   00007d 68                                  ld      l,b                             ;[017d] 68
    91   00007e 65                                  ld      h,l                             ;[017e] 65
    92   00007f 2070                                jr      nz,$01f1                        ;[017f] 20 70
    93   000081 72                                  ld      (hl),d                          ;[0181] 72
    94   000082 6f                                  ld      l,a                             ;[0182] 6f
    95   000083 63                                  ld      h,e                             ;[0183] 63
    96   000084 65                                  ld      h,l                             ;[0184] 65
    97   000085 73                                  ld      (hl),e                          ;[0185] 73
    98   000086 73                                  ld      (hl),e                          ;[0186] 73
    99   000087 206f                                jr      nz,$01f8                        ;[0187] 20 6f
   100   000089 66                                  ld      h,(hl)                          ;[0189] 66
   101   00008a 2066                                jr      nz,$01f2                        ;[018a] 20 66
   102   00008c 6f                                  ld      l,a                             ;[018c] 6f
   103   00008d 72                                  ld      (hl),d                          ;[018d] 72
   104   00008e 6d                                  ld      l,l                             ;[018e] 6d
   105   00008f 61                                  ld      h,c                             ;[018f] 61
   106   000090 74                                  ld      (hl),h                          ;[0190] 74
   107   000091 74                                  ld      (hl),h                          ;[0191] 74
   108   000092 69                                  ld      l,c                             ;[0192] 69
   109   000093 6e                                  ld      l,(hl)                          ;[0193] 6e
   110   000094 67                                  ld      h,a                             ;[0194] 67
   111   000095 2e20                                ld      l,$20                           ;[0195] 2e 20
   112   000097 50                                  ld      d,b                             ;[0197] 50
   113   000098 6c                                  ld      l,h                             ;[0198] 6c
   114   000099 65                                  ld      h,l                             ;[0199] 65
   115   00009a 61                                  ld      h,c                             ;[019a] 61
   116   00009b 73                                  ld      (hl),e                          ;[019b] 73
   117   00009c 65                                  ld      h,l                             ;[019c] 65
   118   00009d 0d                                  dec     c                               ;[019d] 0d
   119   00009e 0a                                  ld      a,(bc)                          ;[019e] 0a
   120   00009f 72                                  ld      (hl),d                          ;[019f] 72
   121   0000a0 65                                  ld      h,l                             ;[01a0] 65
   122   0000a1 6d                                  ld      l,l                             ;[01a1] 6d
   123   0000a2 6f                                  ld      l,a                             ;[01a2] 6f
   124   0000a3 76                                  halt                                    ;[01a3] 76
   125   0000a4 65                                  ld      h,l                             ;[01a4] 65
   126   0000a5 2061                                jr      nz,$0208                        ;[01a5] 20 61
   127   0000a7 6e                                  ld      l,(hl)                          ;[01a7] 6e
   128   0000a8 79                                  ld      a,c                             ;[01a8] 79
   129   0000a9 2076                                jr      nz,$0221                        ;[01a9] 20 76
   130   0000ab 61                                  ld      h,c                             ;[01ab] 61
   131   0000ac 6c                                  ld      l,h                             ;[01ac] 6c
   132   0000ad 75                                  ld      (hl),l                          ;[01ad] 75
   133   0000ae 61                                  ld      h,c                             ;[01ae] 61
   134   0000af 62                                  ld      h,d                             ;[01af] 62
   135   0000b0 6c                                  ld      l,h                             ;[01b0] 6c
   136   0000b1 65                                  ld      h,l                             ;[01b1] 65
   137   0000b2 2064                                jr      nz,$0218                        ;[01b2] 20 64
   138   0000b4 69                                  ld      l,c                             ;[01b4] 69
   139   0000b5 73                                  ld      (hl),e                          ;[01b5] 73
   140   0000b6 6b                                  ld      l,e                             ;[01b6] 6b
   141   0000b7 65                                  ld      h,l                             ;[01b7] 65
   142   0000b8 74                                  ld      (hl),h                          ;[01b8] 74
   143   0000b9 74                                  ld      (hl),h                          ;[01b9] 74
   144   0000ba 65                                  ld      h,l                             ;[01ba] 65
   145   0000bb 73                                  ld      (hl),e                          ;[01bb] 73
   146   0000bc 2062                                jr      nz,$0220                        ;[01bc] 20 62
   147   0000be 65                                  ld      h,l                             ;[01be] 65
   148   0000bf 66                                  ld      h,(hl)                          ;[01bf] 66
   149   0000c0 6f                                  ld      l,a                             ;[01c0] 6f
   150   0000c1 72                                  ld      (hl),d                          ;[01c1] 72
   151   0000c2 65                                  ld      h,l                             ;[01c2] 65
   152   0000c3 0d                                  dec     c                               ;[01c3] 0d
   153   0000c4 0a                                  ld      a,(bc)                          ;[01c4] 0a
   154   0000c5 70                                  ld      (hl),b                          ;[01c5] 70
   155   0000c6 72                                  ld      (hl),d                          ;[01c6] 72
   156   0000c7 6f                                  ld      l,a                             ;[01c7] 6f
   157   0000c8 63                                  ld      h,e                             ;[01c8] 63
   158   0000c9 65                                  ld      h,l                             ;[01c9] 65
   159   0000ca 65                                  ld      h,l                             ;[01ca] 65
   160   0000cb 64                                  ld      h,h                             ;[01cb] 64
   161   0000cc 69                                  ld      l,c                             ;[01cc] 69
   162   0000cd 6e                                  ld      l,(hl)                          ;[01cd] 6e
   163   0000ce 67                                  ld      h,a                             ;[01ce] 67
   164   0000cf 202e                                jr      nz,$01ff                        ;[01cf] 20 2e
   165   0000d1 2e2e                                ld      l,$2e                           ;[01d1] 2e 2e
   166   0000d3 2000                                jr      nz,$01d5                        ;[01d3] 20 00
   167   0000d5 210000                              ld      hl,$0000                        ;[01d5] 21 00 00
   168   0000d8 e5                                  push    hl                              ;[01d8] e5
   169   0000d9 cdb506                              call    $06b5                           ;[01d9] cd b5 06
   170   0000dc e1                                  pop     hl                              ;[01dc] e1
   171   0000dd 2007                                jr      nz,$01e6                        ;[01dd] 20 07
   172   0000df 2b                                  dec     hl                              ;[01df] 2b
   173   0000e0 7c                                  ld      a,h                             ;[01e0] 7c
   174   0000e1 b5                                  or      l                               ;[01e1] b5
   175   0000e2 20f4                                jr      nz,$01d8                        ;[01e2] 20 f4
   176   0000e4 1803                                jr      $01e9                           ;[01e4] 18 03
   177   0000e6 cd9e06                              call    $069e                           ;[01e6] cd 9e 06
   178   0000e9 f5                                  push    af                              ;[01e9] f5
   179   0000ea cd1507                              call    $0715                           ;[01ea] cd 15 07
   180   0000ed 0d                                  dec     c                               ;[01ed] 0d
   181   0000ee 0a                                  ld      a,(bc)                          ;[01ee] 0a
   182   0000ef 00                                  nop                                     ;[01ef] 00
   183   0000f0 f1                                  pop     af                              ;[01f0] f1
   184   0000f1 fe03                                cp      $03                             ;[01f1] fe 03
   185   0000f3 2024                                jr      nz,$0219                        ;[01f3] 20 24
   186   0000f5 cd1507                              call    $0715                           ;[01f5] cd 15 07
   187   0000f8 0d                                  dec     c                               ;[01f8] 0d
   188   0000f9 0a                                  ld      a,(bc)                          ;[01f9] 0a
   189   0000fa 0a                                  ld      a,(bc)                          ;[01fa] 0a
   190   0000fb 72                                  ld      (hl),d                          ;[01fb] 72
   191   0000fc 65                                  ld      h,l                             ;[01fc] 65
   192   0000fd 74                                  ld      (hl),h                          ;[01fd] 74
   193   0000fe 75                                  ld      (hl),l                          ;[01fe] 75
   194   0000ff 72                                  ld      (hl),d                          ;[01ff] 72
   195   000100 6e                                  ld      l,(hl)                          ;[0200] 6e
   196   000101 69                                  ld      l,c                             ;[0201] 69
   197   000102 6e                                  ld      l,(hl)                          ;[0202] 6e
   198   000103 67                                  ld      h,a                             ;[0203] 67
   199   000104 2074                                jr      nz,$027a                        ;[0204] 20 74
   200   000106 6f                                  ld      l,a                             ;[0206] 6f
   201   000107 2043                                jr      nz,$024c                        ;[0207] 20 43
   202   000109 50                                  ld      d,b                             ;[0209] 50
   203   00010a 2f                                  cpl                                     ;[020a] 2f
   204   00010b 4d                                  ld      c,l                             ;[020b] 4d
   205   00010c 202e                                jr      nz,$023c                        ;[020c] 20 2e
   206   00010e 2e2e                                ld      l,$2e                           ;[020e] 2e 2e
   207   000110 200d                                jr      nz,$021f                        ;[0210] 20 0d
   208   000112 0a                                  ld      a,(bc)                          ;[0212] 0a
   209   000113 0a                                  ld      a,(bc)                          ;[0213] 0a
   210   000114 00                                  nop                                     ;[0214] 00
   211   000115 c30000                              jp      $0000                           ;[0215] c3 00 00
   212   000118 00                                  nop                                     ;[0218] 00
   213   000119 cd1507                              call    $0715                           ;[0219] cd 15 07
   214   00011c 0d                                  dec     c                               ;[021c] 0d
   215   00011d 0a                                  ld      a,(bc)                          ;[021d] 0a
   216   00011e 2d                                  dec     l                               ;[021e] 2d
   217   00011f 2d                                  dec     l                               ;[021f] 2d
   218   000120 2d                                  dec     l                               ;[0220] 2d
   219   000121 2044                                jr      nz,$0267                        ;[0221] 20 44
   220   000123 69                                  ld      l,c                             ;[0223] 69
   221   000124 73                                  ld      (hl),e                          ;[0224] 73
   222   000125 6b                                  ld      l,e                             ;[0225] 6b
   223   000126 2046                                jr      nz,$026e                        ;[0226] 20 46
   224   000128 6f                                  ld      l,a                             ;[0228] 6f
   225   000129 72                                  ld      (hl),d                          ;[0229] 72
   226   00012a 6d                                  ld      l,l                             ;[022a] 6d
   227   00012b 61                                  ld      h,c                             ;[022b] 61
   228   00012c 74                                  ld      (hl),h                          ;[022c] 74
   229   00012d 204d                                jr      nz,$027c                        ;[022d] 20 4d
   230   00012f 65                                  ld      h,l                             ;[022f] 65
   231   000130 6e                                  ld      l,(hl)                          ;[0230] 6e
   232   000131 75                                  ld      (hl),l                          ;[0231] 75
   233   000132 202d                                jr      nz,$0261                        ;[0232] 20 2d
   234   000134 2d                                  dec     l                               ;[0234] 2d
   235   000135 2d                                  dec     l                               ;[0235] 2d
   236   000136 0d                                  dec     c                               ;[0236] 0d
   237   000137 0a                                  ld      a,(bc)                          ;[0237] 0a
   238   000138 0a                                  ld      a,(bc)                          ;[0238] 0a
   239   000139 2020                                jr      nz,$025b                        ;[0239] 20 20
   240   00013b 2064                                jr      nz,$02a1                        ;[023b] 20 64
   241   00013d 65                                  ld      h,l                             ;[023d] 65
   242   00013e 6e                                  ld      l,(hl)                          ;[023e] 6e
   243   00013f 73                                  ld      (hl),e                          ;[023f] 73
   244   000140 69                                  ld      l,c                             ;[0240] 69
   245   000141 74                                  ld      (hl),h                          ;[0241] 74
   246   000142 79                                  ld      a,c                             ;[0242] 79
   247   000143 2020                                jr      nz,$0265                        ;[0243] 20 20
   248   000145 2073                                jr      nz,$02ba                        ;[0245] 20 73
   249   000147 65                                  ld      h,l                             ;[0247] 65
   250   000148 63                                  ld      h,e                             ;[0248] 63
   251   000149 74                                  ld      (hl),h                          ;[0249] 74
   252   00014a 6f                                  ld      l,a                             ;[024a] 6f
   253   00014b 72                                  ld      (hl),d                          ;[024b] 72
   254   00014c 2073                                jr      nz,$02c1                        ;[024c] 20 73
   255   00014e 69                                  ld      l,c                             ;[024e] 69
   256   00014f 7a                                  ld      a,d                             ;[024f] 7a
   257   000150 65                                  ld      h,l                             ;[0250] 65
   258   000151 0d                                  dec     c                               ;[0251] 0d
   259   000152 0a                                  ld      a,(bc)                          ;[0252] 0a
   260   000153 2020                                jr      nz,$0275                        ;[0253] 20 20
   261   000155 202d                                jr      nz,$0284                        ;[0255] 20 2d
   262   000157 2d                                  dec     l                               ;[0257] 2d
   263   000158 2d                                  dec     l                               ;[0258] 2d
   264   000159 2d                                  dec     l                               ;[0259] 2d
   265   00015a 2d                                  dec     l                               ;[025a] 2d
   266   00015b 2d                                  dec     l                               ;[025b] 2d
   267   00015c 2d                                  dec     l                               ;[025c] 2d
   268   00015d 2020                                jr      nz,$027f                        ;[025d] 20 20
   269   00015f 202d                                jr      nz,$028e                        ;[025f] 20 2d
   270   000161 2d                                  dec     l                               ;[0261] 2d
   271   000162 2d                                  dec     l                               ;[0262] 2d
   272   000163 2d                                  dec     l                               ;[0263] 2d
   273   000164 2d                                  dec     l                               ;[0264] 2d
   274   000165 2d                                  dec     l                               ;[0265] 2d
   275   000166 2d                                  dec     l                               ;[0266] 2d
   276   000167 2d                                  dec     l                               ;[0267] 2d
   277   000168 2d                                  dec     l                               ;[0268] 2d
   278   000169 2d                                  dec     l                               ;[0269] 2d
   279   00016a 2d                                  dec     l                               ;[026a] 2d
   280   00016b 0d                                  dec     c                               ;[026b] 0d
   281   00016c 0a                                  ld      a,(bc)                          ;[026c] 0a
   282   00016d 312920                              ld      sp,$2029                        ;[026d] 31 29 20
   283   000170 73                                  ld      (hl),e                          ;[0270] 73
   284   000171 69                                  ld      l,c                             ;[0271] 69
   285   000172 6e                                  ld      l,(hl)                          ;[0272] 6e
   286   000173 67                                  ld      h,a                             ;[0273] 67
   287   000174 6c                                  ld      l,h                             ;[0274] 6c
   288   000175 65                                  ld      h,l                             ;[0275] 65
   289   000176 2020                                jr      nz,$0298                        ;[0276] 20 20
   290   000178 2020                                jr      nz,$029a                        ;[0278] 20 20
   291   00017a 2031                                jr      nz,$02ad                        ;[027a] 20 31
   292   00017c 323820                              ld      ($2038),a                       ;[027c] 32 38 20
   293   00017f 62                                  ld      h,d                             ;[027f] 62
   294   000180 79                                  ld      a,c                             ;[0280] 79
   295   000181 74                                  ld      (hl),h                          ;[0281] 74
   296   000182 65                                  ld      h,l                             ;[0282] 65
   297   000183 73                                  ld      (hl),e                          ;[0283] 73
   298   000184 0d                                  dec     c                               ;[0284] 0d
   299   000185 0a                                  ld      a,(bc)                          ;[0285] 0a
   300   000186 322920                              ld      ($2029),a                       ;[0286] 32 29 20
   301   000189 64                                  ld      h,h                             ;[0289] 64
   302   00018a 6f                                  ld      l,a                             ;[028a] 6f
   303   00018b 75                                  ld      (hl),l                          ;[028b] 75
   304   00018c 62                                  ld      h,d                             ;[028c] 62
   305   00018d 6c                                  ld      l,h                             ;[028d] 6c
   306   00018e 65                                  ld      h,l                             ;[028e] 65
   307   00018f 2020                                jr      nz,$02b1                        ;[028f] 20 20
   308   000191 2020                                jr      nz,$02b3                        ;[0291] 20 20
   309   000193 2032                                jr      nz,$02c7                        ;[0293] 20 32
   310   000195 35                                  dec     (hl)                            ;[0295] 35
   311   000196 3620                                ld      (hl),$20                        ;[0296] 36 20
   312   000198 62                                  ld      h,d                             ;[0298] 62
   313   000199 79                                  ld      a,c                             ;[0299] 79
   314   00019a 74                                  ld      (hl),h                          ;[029a] 74
   315   00019b 65                                  ld      h,l                             ;[029b] 65
   316   00019c 73                                  ld      (hl),e                          ;[029c] 73
   317   00019d 0d                                  dec     c                               ;[029d] 0d
   318   00019e 0a                                  ld      a,(bc)                          ;[029e] 0a
   319   00019f 33                                  inc     sp                              ;[029f] 33
   320   0001a0 29                                  add     hl,hl                           ;[02a0] 29
   321   0001a1 2064                                jr      nz,$0307                        ;[02a1] 20 64
   322   0001a3 6f                                  ld      l,a                             ;[02a3] 6f
   323   0001a4 75                                  ld      (hl),l                          ;[02a4] 75
   324   0001a5 62                                  ld      h,d                             ;[02a5] 62
   325   0001a6 6c                                  ld      l,h                             ;[02a6] 6c
   326   0001a7 65                                  ld      h,l                             ;[02a7] 65
   327   0001a8 2020                                jr      nz,$02ca                        ;[02a8] 20 20
   328   0001aa 2020                                jr      nz,$02cc                        ;[02aa] 20 20
   329   0001ac 2035                                jr      nz,$02e3                        ;[02ac] 20 35
   330   0001ae 313220                              ld      sp,$2032                        ;[02ae] 31 32 20
   331   0001b1 62                                  ld      h,d                             ;[02b1] 62
   332   0001b2 79                                  ld      a,c                             ;[02b2] 79
   333   0001b3 74                                  ld      (hl),h                          ;[02b3] 74
   334   0001b4 65                                  ld      h,l                             ;[02b4] 65
   335   0001b5 73                                  ld      (hl),e                          ;[02b5] 73
   336   0001b6 0d                                  dec     c                               ;[02b6] 0d
   337   0001b7 0a                                  ld      a,(bc)                          ;[02b7] 0a
   338   0001b8 34                                  inc     (hl)                            ;[02b8] 34
   339   0001b9 29                                  add     hl,hl                           ;[02b9] 29
   340   0001ba 2064                                jr      nz,$0320                        ;[02ba] 20 64
   341   0001bc 6f                                  ld      l,a                             ;[02bc] 6f
   342   0001bd 75                                  ld      (hl),l                          ;[02bd] 75
   343   0001be 62                                  ld      h,d                             ;[02be] 62
   344   0001bf 6c                                  ld      l,h                             ;[02bf] 6c
   345   0001c0 65                                  ld      h,l                             ;[02c0] 65
   346   0001c1 2020                                jr      nz,$02e3                        ;[02c1] 20 20
   347   0001c3 2020                                jr      nz,$02e5                        ;[02c3] 20 20
   348   0001c5 313032                              ld      sp,$3230                        ;[02c5] 31 30 32
   349   0001c8 34                                  inc     (hl)                            ;[02c8] 34
   350   0001c9 2062                                jr      nz,$032d                        ;[02c9] 20 62
   351   0001cb 79                                  ld      a,c                             ;[02cb] 79
   352   0001cc 74                                  ld      (hl),h                          ;[02cc] 74
   353   0001cd 65                                  ld      h,l                             ;[02cd] 65
   354   0001ce 73                                  ld      (hl),e                          ;[02ce] 73
   355   0001cf 0d                                  dec     c                               ;[02cf] 0d
   356   0001d0 0a                                  ld      a,(bc)                          ;[02d0] 0a
   357   0001d1 0a                                  ld      a,(bc)                          ;[02d1] 0a
   358   0001d2 65                                  ld      h,l                             ;[02d2] 65
   359   0001d3 6e                                  ld      l,(hl)                          ;[02d3] 6e
   360   0001d4 74                                  ld      (hl),h                          ;[02d4] 74
   361   0001d5 65                                  ld      h,l                             ;[02d5] 65
   362   0001d6 72                                  ld      (hl),d                          ;[02d6] 72
   363   0001d7 206e                                jr      nz,$0347                        ;[02d7] 20 6e
   364   0001d9 75                                  ld      (hl),l                          ;[02d9] 75
   365   0001da 6d                                  ld      l,l                             ;[02da] 6d
   366   0001db 62                                  ld      h,d                             ;[02db] 62
   367   0001dc 65                                  ld      h,l                             ;[02dc] 65
   368   0001dd 72                                  ld      (hl),d                          ;[02dd] 72
   369   0001de 206f                                jr      nz,$034f                        ;[02de] 20 6f
   370   0001e0 66                                  ld      h,(hl)                          ;[02e0] 66
   371   0001e1 2066                                jr      nz,$0349                        ;[02e1] 20 66
   372   0001e3 6f                                  ld      l,a                             ;[02e3] 6f
   373   0001e4 72                                  ld      (hl),d                          ;[02e4] 72
   374   0001e5 6d                                  ld      l,l                             ;[02e5] 6d
   375   0001e6 61                                  ld      h,c                             ;[02e6] 61
   376   0001e7 74                                  ld      (hl),h                          ;[02e7] 74
   377   0001e8 2028                                jr      nz,$0312                        ;[02e8] 20 28
   378   0001ea 312074                              ld      sp,$7420                        ;[02ea] 31 20 74
   379   0001ed 68                                  ld      l,b                             ;[02ed] 68
   380   0001ee 72                                  ld      (hl),d                          ;[02ee] 72
   381   0001ef 75                                  ld      (hl),l                          ;[02ef] 75
   382   0001f0 2034                                jr      nz,$0326                        ;[02f0] 20 34
   383   0001f2 29                                  add     hl,hl                           ;[02f2] 29
   384   0001f3 202e                                jr      nz,$0323                        ;[02f3] 20 2e
   385   0001f5 2e2e                                ld      l,$2e                           ;[02f5] 2e 2e
   386   0001f7 2000                                jr      nz,$02f9                        ;[02f7] 20 00
   387   0001f9 cdc706                              call    $06c7                           ;[02f9] cd c7 06
   388   0001fc fe31                                cp      $31                             ;[02fc] fe 31
   389   0001fe 38f9                                jr      c,$02f9                         ;[02fe] 38 f9
   390   000200 fe35                                cp      $35                             ;[0300] fe 35
   391   000202 30f5                                jr      nc,$02f9                        ;[0302] 30 f5
   392   000204 d631                                sub     $31                             ;[0304] d6 31
   393   000206 327b06                              ld      ($067b),a                       ;[0306] 32 7b 06
   394   000209 cd1507                              call    $0715                           ;[0309] cd 15 07
   395   00020c 0d                                  dec     c                               ;[030c] 0d
   396   00020d 0a                                  ld      a,(bc)                          ;[030d] 0a
   397   00020e 65                                  ld      h,l                             ;[030e] 65
   398   00020f 6e                                  ld      l,(hl)                          ;[030f] 6e
   399   000210 74                                  ld      (hl),h                          ;[0310] 74
   400   000211 65                                  ld      h,l                             ;[0311] 65
   401   000212 72                                  ld      (hl),d                          ;[0312] 72
   402   000213 2064                                jr      nz,$0379                        ;[0313] 20 64
   403   000215 72                                  ld      (hl),d                          ;[0315] 72
   404   000216 69                                  ld      l,c                             ;[0316] 69
   405   000217 76                                  halt                                    ;[0317] 76
   406   000218 65                                  ld      h,l                             ;[0318] 65
   407   000219 206e                                jr      nz,$0389                        ;[0319] 20 6e
   408   00021b 61                                  ld      h,c                             ;[031b] 61
   409   00021c 6d                                  ld      l,l                             ;[031c] 6d
   410   00021d 65                                  ld      h,l                             ;[031d] 65
   411   00021e 2028                                jr      nz,$0348                        ;[031e] 20 28
   412   000220 41                                  ld      b,c                             ;[0320] 41
   413   000221 2c                                  inc     l                               ;[0321] 2c
   414   000222 42                                  ld      b,d                             ;[0322] 42
   415   000223 2c                                  inc     l                               ;[0323] 2c
   416   000224 43                                  ld      b,e                             ;[0324] 43
   417   000225 206f                                jr      nz,$0396                        ;[0325] 20 6f
   418   000227 72                                  ld      (hl),d                          ;[0327] 72
   419   000228 2044                                jr      nz,$036e                        ;[0328] 20 44
   420   00022a 29                                  add     hl,hl                           ;[032a] 29
   421   00022b 202e                                jr      nz,$035b                        ;[032b] 20 2e
   422   00022d 2e2e                                ld      l,$2e                           ;[032d] 2e 2e
   423   00022f 2e2e                                ld      l,$2e                           ;[032f] 2e 2e
   424   000231 2e2e                                ld      l,$2e                           ;[0331] 2e 2e
   425   000233 2000                                jr      nz,$0335                        ;[0333] 20 00
   426   000235 cdc706                              call    $06c7                           ;[0335] cd c7 06
   427   000238 fe41                                cp      $41                             ;[0338] fe 41
   428   00023a 38f9                                jr      c,$0335                         ;[033a] 38 f9
   429   00023c fe45                                cp      $45                             ;[033c] fe 45
   430   00023e 30f5                                jr      nc,$0335                        ;[033e] 30 f5
   431   000240 d641                                sub     $41                             ;[0340] d6 41
   432   000242 328206                              ld      ($0682),a                       ;[0342] 32 82 06
   433   000245 af                                  xor     a                               ;[0345] af
   434   000246 328006                              ld      ($0680),a                       ;[0346] 32 80 06
   435   000249 cd1507                              call    $0715                           ;[0349] cd 15 07
   436   00024c 0d                                  dec     c                               ;[034c] 0d
   437   00024d 0a                                  ld      a,(bc)                          ;[034d] 0a
   438   00024e 73                                  ld      (hl),e                          ;[034e] 73
   439   00024f 69                                  ld      l,c                             ;[034f] 69
   440   000250 6e                                  ld      l,(hl)                          ;[0350] 6e
   441   000251 67                                  ld      h,a                             ;[0351] 67
   442   000252 6c                                  ld      l,h                             ;[0352] 6c
   443   000253 65                                  ld      h,l                             ;[0353] 65
   444   000254 206f                                jr      nz,$03c5                        ;[0354] 20 6f
   445   000256 72                                  ld      (hl),d                          ;[0356] 72
   446   000257 2064                                jr      nz,$03bd                        ;[0357] 20 64
   447   000259 6f                                  ld      l,a                             ;[0359] 6f
   448   00025a 75                                  ld      (hl),l                          ;[035a] 75
   449   00025b 62                                  ld      h,d                             ;[035b] 62
   450   00025c 6c                                  ld      l,h                             ;[035c] 6c
   451   00025d 65                                  ld      h,l                             ;[035d] 65
   452   00025e 2073                                jr      nz,$03d3                        ;[035e] 20 73
   453   000260 69                                  ld      l,c                             ;[0360] 69
   454   000261 64                                  ld      h,h                             ;[0361] 64
   455   000262 65                                  ld      h,l                             ;[0362] 65
   456   000263 64                                  ld      h,h                             ;[0363] 64
   457   000264 2028                                jr      nz,$038e                        ;[0364] 20 28
   458   000266 53                                  ld      d,e                             ;[0366] 53
   459   000267 206f                                jr      nz,$03d8                        ;[0367] 20 6f
   460   000269 72                                  ld      (hl),d                          ;[0369] 72
   461   00026a 2044                                jr      nz,$03b0                        ;[036a] 20 44
   462   00026c 29                                  add     hl,hl                           ;[036c] 29
   463   00026d 202e                                jr      nz,$039d                        ;[036d] 20 2e
   464   00026f 2e2e                                ld      l,$2e                           ;[036f] 2e 2e
   465   000271 2e2e                                ld      l,$2e                           ;[0371] 2e 2e
   466   000273 2000                                jr      nz,$0375                        ;[0373] 20 00
   467   000275 cdc706                              call    $06c7                           ;[0375] cd c7 06
   468   000278 fe53                                cp      $53                             ;[0378] fe 53
   469   00027a 2809                                jr      z,$0385                         ;[037a] 28 09
   470   00027c fe44                                cp      $44                             ;[037c] fe 44
   471   00027e 20f5                                jr      nz,$0375                        ;[037e] 20 f5
   472   000280 218006                              ld      hl,$0680                        ;[0380] 21 80 06
   473   000283 cbfe                                set     7,(hl)                          ;[0383] cb fe
   474   000285 cd1507                              call    $0715                           ;[0385] cd 15 07
   475   000288 0d                                  dec     c                               ;[0388] 0d
   476   000289 0a                                  ld      a,(bc)                          ;[0389] 0a
   477   00028a 00                                  nop                                     ;[038a] 00
   478   00028b 3a8206                              ld      a,($0682)                       ;[038b] 3a 82 06
   479   00028e c641                                add     $41                             ;[038e] c6 41
   480   000290 32bc03                              ld      ($03bc),a                       ;[0390] 32 bc 03
   481   000293 cd1507                              call    $0715                           ;[0393] cd 15 07
   482   000296 0d                                  dec     c                               ;[0396] 0d
   483   000297 0a                                  ld      a,(bc)                          ;[0397] 0a
   484   000298 70                                  ld      (hl),b                          ;[0398] 70
   485   000299 72                                  ld      (hl),d                          ;[0399] 72
   486   00029a 65                                  ld      h,l                             ;[039a] 65
   487   00029b 73                                  ld      (hl),e                          ;[039b] 73
   488   00029c 73                                  ld      (hl),e                          ;[039c] 73
   489   00029d 203c                                jr      nz,$03db                        ;[039d] 20 3c
   490   00029f 59                                  ld      e,c                             ;[039f] 59
   491   0002a0 3e20                                ld      a,$20                           ;[03a0] 3e 20
   492   0002a2 77                                  ld      (hl),a                          ;[03a2] 77
   493   0002a3 68                                  ld      l,b                             ;[03a3] 68
   494   0002a4 65                                  ld      h,l                             ;[03a4] 65
   495   0002a5 6e                                  ld      l,(hl)                          ;[03a5] 6e
   496   0002a6 2072                                jr      nz,$041a                        ;[03a6] 20 72
   497   0002a8 65                                  ld      h,l                             ;[03a8] 65
   498   0002a9 61                                  ld      h,c                             ;[03a9] 61
   499   0002aa 64                                  ld      h,h                             ;[03aa] 64
   500   0002ab 79                                  ld      a,c                             ;[03ab] 79
   501   0002ac 2074                                jr      nz,$0422                        ;[03ac] 20 74
   502   0002ae 6f                                  ld      l,a                             ;[03ae] 6f
   503   0002af 2066                                jr      nz,$0417                        ;[03af] 20 66
   504   0002b1 6f                                  ld      l,a                             ;[03b1] 6f
   505   0002b2 72                                  ld      (hl),d                          ;[03b2] 72
   506   0002b3 6d                                  ld      l,l                             ;[03b3] 6d
   507   0002b4 61                                  ld      h,c                             ;[03b4] 61
   508   0002b5 74                                  ld      (hl),h                          ;[03b5] 74
   509   0002b6 2064                                jr      nz,$041c                        ;[03b6] 20 64
   510   0002b8 69                                  ld      l,c                             ;[03b8] 69
   511   0002b9 73                                  ld      (hl),e                          ;[03b9] 73
   512   0002ba 6b                                  ld      l,e                             ;[03ba] 6b
   513   0002bb 2041                                jr      nz,$03fe                        ;[03bb] 20 41
   514   0002bd 0d                                  dec     c                               ;[03bd] 0d
   515   0002be 0a                                  ld      a,(bc)                          ;[03be] 0a
   516   0002bf 6f                                  ld      l,a                             ;[03bf] 6f
   517   0002c0 72                                  ld      (hl),d                          ;[03c0] 72
   518   0002c1 203c                                jr      nz,$03ff                        ;[03c1] 20 3c
   519   0002c3 43                                  ld      b,e                             ;[03c3] 43
   520   0002c4 54                                  ld      d,h                             ;[03c4] 54
   521   0002c5 4c                                  ld      c,h                             ;[03c5] 4c
   522   0002c6 2d                                  dec     l                               ;[03c6] 2d
   523   0002c7 43                                  ld      b,e                             ;[03c7] 43
   524   0002c8 3e20                                ld      a,$20                           ;[03c8] 3e 20
   525   0002ca 74                                  ld      (hl),h                          ;[03ca] 74
   526   0002cb 6f                                  ld      l,a                             ;[03cb] 6f
   527   0002cc 2065                                jr      nz,$0433                        ;[03cc] 20 65
   528   0002ce 78                                  ld      a,b                             ;[03ce] 78
   529   0002cf 69                                  ld      l,c                             ;[03cf] 69
   530   0002d0 74                                  ld      (hl),h                          ;[03d0] 74
   531   0002d1 2074                                jr      nz,$0447                        ;[03d1] 20 74
   532   0002d3 6f                                  ld      l,a                             ;[03d3] 6f
   533   0002d4 2043                                jr      nz,$0419                        ;[03d4] 20 43
   534   0002d6 50                                  ld      d,b                             ;[03d6] 50
   535   0002d7 2f                                  cpl                                     ;[03d7] 2f
   536   0002d8 4d                                  ld      c,l                             ;[03d8] 4d
   537   0002d9 202e                                jr      nz,$0409                        ;[03d9] 20 2e
   538   0002db 2e2e                                ld      l,$2e                           ;[03db] 2e 2e
   539   0002dd 2000                                jr      nz,$03df                        ;[03dd] 20 00
   540   0002df cd0b07                              call    $070b                           ;[03df] cd 0b 07
   541   0002e2 cd9e06                              call    $069e                           ;[03e2] cd 9e 06
   542   0002e5 fe03                                cp      $03                             ;[03e5] fe 03
   543   0002e7 caf501                              jp      z,$01f5                         ;[03e7] ca f5 01
   544   0002ea fe59                                cp      $59                             ;[03ea] fe 59
   545   0002ec 2806                                jr      z,$03f4                         ;[03ec] 28 06
   546   0002ee cd8a06                              call    $068a                           ;[03ee] cd 8a 06
   547   0002f1 c30001                              jp      $0100                           ;[03f1] c3 00 01
   548   0002f4 cd1507                              call    $0715                           ;[03f4] cd 15 07
   549   0002f7 0d                                  dec     c                               ;[03f7] 0d
   550   0002f8 0a                                  ld      a,(bc)                          ;[03f8] 0a
   551   0002f9 0a                                  ld      a,(bc)                          ;[03f9] 0a
   552   0002fa 00                                  nop                                     ;[03fa] 00
   553   0002fb dd218106                            ld      ix,$0681                        ;[03fb] dd 21 81 06
   554   0002ff cd0ff0                              call    $f00f                           ;[03ff] cd 0f f0
   555   000302 3a8906                              ld      a,($0689)                       ;[0402] 3a 89 06
   556   000305 cb7f                                bit     7,a                             ;[0405] cb 7f
   557   000307 2845                                jr      z,$044e                         ;[0407] 28 45
   558   000309 cd1507                              call    $0715                           ;[0409] cd 15 07
   559   00030c 2a2a2a                              ld      hl,($2a2a)                      ;[040c] 2a 2a 2a
   560   00030f 2044                                jr      nz,$0455                        ;[040f] 20 44
   561   000311 52                                  ld      d,d                             ;[0411] 52
   562   000312 49                                  ld      c,c                             ;[0412] 49
   563   000313 56                                  ld      d,(hl)                          ;[0413] 56
   564   000314 45                                  ld      b,l                             ;[0414] 45
   565   000315 204e                                jr      nz,$0465                        ;[0415] 20 4e
   566   000317 4f                                  ld      c,a                             ;[0417] 4f
   567   000318 54                                  ld      d,h                             ;[0418] 54
   568   000319 2052                                jr      nz,$046d                        ;[0419] 20 52
   569   00031b 45                                  ld      b,l                             ;[041b] 45
   570   00031c 41                                  ld      b,c                             ;[041c] 41
   571   00031d 44                                  ld      b,h                             ;[041d] 44
   572   00031e 59                                  ld      e,c                             ;[041e] 59
   573   00031f 202a                                jr      nz,$044b                        ;[041f] 20 2a
   574   000321 2a2a0d                              ld      hl,($0d2a)                      ;[0421] 2a 2a 0d
   575   000324 0a                                  ld      a,(bc)                          ;[0424] 0a
   576   000325 2864                                jr      z,$048b                         ;[0425] 28 64
   577   000327 72                                  ld      (hl),d                          ;[0427] 72
   578   000328 69                                  ld      l,c                             ;[0428] 69
   579   000329 76                                  halt                                    ;[0429] 76
   580   00032a 65                                  ld      h,l                             ;[042a] 65
   581   00032b 2064                                jr      nz,$0491                        ;[042b] 20 64
   582   00032d 6f                                  ld      l,a                             ;[042d] 6f
   583   00032e 6f                                  ld      l,a                             ;[042e] 6f
   584   00032f 72                                  ld      (hl),d                          ;[042f] 72
   585   000330 206f                                jr      nz,$04a1                        ;[0430] 20 6f
   586   000332 70                                  ld      (hl),b                          ;[0432] 70
   587   000333 65                                  ld      h,l                             ;[0433] 65
   588   000334 6e                                  ld      l,(hl)                          ;[0434] 6e
   589   000335 3f                                  ccf                                     ;[0435] 3f
   590   000336 2020                                jr      nz,$0458                        ;[0436] 20 20
   591   000338 64                                  ld      h,h                             ;[0438] 64
   592   000339 69                                  ld      l,c                             ;[0439] 69
   593   00033a 73                                  ld      (hl),e                          ;[043a] 73
   594   00033b 6b                                  ld      l,e                             ;[043b] 6b
   595   00033c 2069                                jr      nz,$04a7                        ;[043c] 20 69
   596   00033e 6e                                  ld      l,(hl)                          ;[043e] 6e
   597   00033f 2077                                jr      nz,$04b8                        ;[043f] 20 77
   598   000341 72                                  ld      (hl),d                          ;[0441] 72
   599   000342 6f                                  ld      l,a                             ;[0442] 6f
   600   000343 6e                                  ld      l,(hl)                          ;[0443] 6e
   601   000344 67                                  ld      h,a                             ;[0444] 67
   602   000345 3f                                  ccf                                     ;[0445] 3f
   603   000346 29                                  add     hl,hl                           ;[0446] 29
   604   000347 0d                                  dec     c                               ;[0447] 0d
   605   000348 0a                                  ld      a,(bc)                          ;[0448] 0a
   606   000349 07                                  rlca                                    ;[0449] 07
   607   00034a 00                                  nop                                     ;[044a] 00
   608   00034b c38b03                              jp      $038b                           ;[044b] c3 8b 03
   609   00034e cb77                                bit     6,a                             ;[044e] cb 77
   610   000350 283b                                jr      z,$048d                         ;[0450] 28 3b
   611   000352 cd1507                              call    $0715                           ;[0452] cd 15 07
   612   000355 2a2a2a                              ld      hl,($2a2a)                      ;[0455] 2a 2a 2a
   613   000358 2057                                jr      nz,$04b1                        ;[0458] 20 57
   614   00035a 52                                  ld      d,d                             ;[045a] 52
   615   00035b 49                                  ld      c,c                             ;[045b] 49
   616   00035c 54                                  ld      d,h                             ;[045c] 54
   617   00035d 45                                  ld      b,l                             ;[045d] 45
   618   00035e 2050                                jr      nz,$04b0                        ;[045e] 20 50
   619   000360 52                                  ld      d,d                             ;[0460] 52
   620   000361 4f                                  ld      c,a                             ;[0461] 4f
   621   000362 54                                  ld      d,h                             ;[0462] 54
   622   000363 45                                  ld      b,l                             ;[0463] 45
   623   000364 43                                  ld      b,e                             ;[0464] 43
   624   000365 54                                  ld      d,h                             ;[0465] 54
   625   000366 45                                  ld      b,l                             ;[0466] 45
   626   000367 44                                  ld      b,h                             ;[0467] 44
   627   000368 202a                                jr      nz,$0494                        ;[0468] 20 2a
   628   00036a 2a2a0d                              ld      hl,($0d2a)                      ;[046a] 2a 2a 0d
   629   00036d 0a                                  ld      a,(bc)                          ;[046d] 0a
   630   00036e 2863                                jr      z,$04d3                         ;[046e] 28 63
   631   000370 68                                  ld      l,b                             ;[0470] 68
   632   000371 65                                  ld      h,l                             ;[0471] 65
   633   000372 63                                  ld      h,e                             ;[0472] 63
   634   000373 6b                                  ld      l,e                             ;[0473] 6b
   635   000374 2077                                jr      nz,$04ed                        ;[0474] 20 77
   636   000376 72                                  ld      (hl),d                          ;[0476] 72
   637   000377 69                                  ld      l,c                             ;[0477] 69
   638   000378 74                                  ld      (hl),h                          ;[0478] 74
   639   000379 65                                  ld      h,l                             ;[0479] 65
   640   00037a 2070                                jr      nz,$04ec                        ;[047a] 20 70
   641   00037c 72                                  ld      (hl),d                          ;[047c] 72
   642   00037d 6f                                  ld      l,a                             ;[047d] 6f
   643   00037e 74                                  ld      (hl),h                          ;[047e] 74
   644   00037f 65                                  ld      h,l                             ;[047f] 65
   645   000380 63                                  ld      h,e                             ;[0480] 63
   646   000381 74                                  ld      (hl),h                          ;[0481] 74
   647   000382 2074                                jr      nz,$04f8                        ;[0482] 20 74
   648   000384 61                                  ld      h,c                             ;[0484] 61
   649   000385 62                                  ld      h,d                             ;[0485] 62
   650   000386 29                                  add     hl,hl                           ;[0486] 29
   651   000387 0d                                  dec     c                               ;[0487] 0d
   652   000388 0a                                  ld      a,(bc)                          ;[0488] 0a
   653   000389 00                                  nop                                     ;[0489] 00
   654   00038a c38b03                              jp      $038b                           ;[048a] c3 8b 03
   655   00038d cd1507                              call    $0715                           ;[048d] cd 15 07
   656   000390 0d                                  dec     c                               ;[0490] 0d
   657   000391 0a                                  ld      a,(bc)                          ;[0491] 0a
   658   000392 00                                  nop                                     ;[0492] 00
   659   000393 210000                              ld      hl,$0000                        ;[0493] 21 00 00
   660   000396 223606                              ld      ($0636),hl                      ;[0496] 22 36 06
   661   000399 223806                              ld      ($0638),hl                      ;[0499] 22 38 06
   662   00039c 3a7b06                              ld      a,($067b)                       ;[049c] 3a 7b 06
   663   00039f b7                                  or      a                               ;[049f] b7
   664   0003a0 3a8706                              ld      a,($0687)                       ;[04a0] 3a 87 06
   665   0003a3 2804                                jr      z,$04a9                         ;[04a3] 28 04
   666   0003a5 cbbf                                res     7,a                             ;[04a5] cb bf
   667   0003a7 1802                                jr      $04ab                           ;[04a7] 18 02
   668   0003a9 cbff                                set     7,a                             ;[04a9] cb ff
   669   0003ab 328706                              ld      ($0687),a                       ;[04ab] 32 87 06
   670   0003ae 213b06                              ld      hl,$063b                        ;[04ae] 21 3b 06
   671   0003b1 cb77                                bit     6,a                             ;[04b1] cb 77
   672   0003b3 2803                                jr      z,$04b8                         ;[04b3] 28 03
   673   0003b5 215706                              ld      hl,$0657                        ;[04b5] 21 57 06
   674   0003b8 117306                              ld      de,$0673                        ;[04b8] 11 73 06
   675   0003bb 010700                              ld      bc,$0007                        ;[04bb] 01 07 00
   676   0003be 3a7b06                              ld      a,($067b)                       ;[04be] 3a 7b 06
   677   0003c1 e603                                and     $03                             ;[04c1] e6 03
   678   0003c3 2804                                jr      z,$04c9                         ;[04c3] 28 04
   679   0003c5 09                                  add     hl,bc                           ;[04c5] 09
   680   0003c6 3d                                  dec     a                               ;[04c6] 3d
   681   0003c7 20fc                                jr      nz,$04c5                        ;[04c7] 20 fc
   682   0003c9 edb0                                ldir                                    ;[04c9] ed b0
   683   0003cb 3a7706                              ld      a,($0677)                       ;[04cb] 3a 77 06
   684   0003ce 67                                  ld      h,a                             ;[04ce] 67
   685   0003cf 3a7506                              ld      a,($0675)                       ;[04cf] 3a 75 06
   686   0003d2 6f                                  ld      l,a                             ;[04d2] 6f
   687   0003d3 cda109                              call    $09a1                           ;[04d3] cd a1 09
   688   0003d6 2a0100                              ld      hl,($0001)                      ;[04d6] 2a 01 00
   689   0003d9 011800                              ld      bc,$0018                        ;[04d9] 01 18 00
   690   0003dc 09                                  add     hl,bc                           ;[04dc] 09
   691   0003dd 3a8206                              ld      a,($0682)                       ;[04dd] 3a 82 06
   692   0003e0 4f                                  ld      c,a                             ;[04e0] 4f
   693   0003e1 0600                                ld      b,$00                           ;[04e1] 06 00
   694   0003e3 11ffff                              ld      de,$ffff                        ;[04e3] 11 ff ff
   695   0003e6 cdc205                              call    $05c2                           ;[04e6] cd c2 05
   696   0003e9 012300                              ld      bc,$0023                        ;[04e9] 01 23 00
   697   0003ec 09                                  add     hl,bc                           ;[04ec] 09
   698   0003ed 7e                                  ld      a,(hl)                          ;[04ed] 7e
   699   0003ee b7                                  or      a                               ;[04ee] b7
   700   0003ef 2803                                jr      z,$04f4                         ;[04ef] 28 03
   701   0003f1 327606                              ld      ($0676),a                       ;[04f1] 32 76 06
   702   0003f4 3a8000                              ld      a,($0080)                       ;[04f4] 3a 80 00
   703   0003f7 fe03                                cp      $03                             ;[04f7] fe 03
   704   0003f9 2037                                jr      nz,$0532                        ;[04f9] 20 37
   705   0003fb 2a8100                              ld      hl,($0081)                      ;[04fb] 2a 81 00
   706   0003fe 01202f                              ld      bc,$2f20                        ;[04fe] 01 20 2f
   707   000401 b7                                  or      a                               ;[0501] b7
   708   000402 ed42                                sbc     hl,bc                           ;[0502] ed 42
   709   000404 202c                                jr      nz,$0532                        ;[0504] 20 2c
   710   000406 3a8300                              ld      a,($0083)                       ;[0506] 3a 83 00
   711   000409 fe30                                cp      $30                             ;[0509] fe 30
   712   00040b 200d                                jr      nz,$051a                        ;[050b] 20 0d
   713   00040d 21d609                              ld      hl,$09d6                        ;[050d] 21 d6 09
   714   000410 3a7706                              ld      a,($0677)                       ;[0510] 3a 77 06
   715   000413 35                                  dec     (hl)                            ;[0513] 35
   716   000414 23                                  inc     hl                              ;[0514] 23
   717   000415 3d                                  dec     a                               ;[0515] 3d
   718   000416 20fb                                jr      nz,$0513                        ;[0516] 20 fb
   719   000418 1818                                jr      $0532                           ;[0518] 18 18
   720   00041a 3e50                                ld      a,$50                           ;[051a] 3e 50
   721   00041c 327606                              ld      ($0676),a                       ;[051c] 32 76 06
   722   00041f af                                  xor     a                               ;[051f] af
   723   000420 327f06                              ld      ($067f),a                       ;[0520] 32 7f 06
   724   000423 3a8300                              ld      a,($0083)                       ;[0523] 3a 83 00
   725   000426 fe44                                cp      $44                             ;[0526] fe 44
   726   000428 2008                                jr      nz,$0532                        ;[0528] 20 08
   727   00042a 3e28                                ld      a,$28                           ;[052a] 3e 28
   728   00042c 327f06                              ld      ($067f),a                       ;[052c] 32 7f 06
   729   00042f 327606                              ld      ($0676),a                       ;[052f] 32 76 06
   730   000432 f3                                  di                                      ;[0532] f3
   731   000433 3e03                                ld      a,$03                           ;[0533] 3e 03
   732   000435 d383                                out     ($83),a                         ;[0535] d3 83
   733   000437 fb                                  ei                                      ;[0537] fb
   734   000438 cd7707                              call    $0777                           ;[0538] cd 77 07
   735   00043b db41                                in      a,($41)                         ;[053b] db 41
   736   00043d d343                                out     ($43),a                         ;[053d] d3 43
   737   00043f 3e10                                ld      a,$10                           ;[053f] 3e 10
   738   000441 d340                                out     ($40),a                         ;[0541] d3 40
   739   000443 af                                  xor     a                               ;[0543] af
   740   000444 d330                                out     ($30),a                         ;[0544] d3 30
   741   000446 cd1507                              call    $0715                           ;[0546] cd 15 07
   742   000449 0d                                  dec     c                               ;[0549] 0d
   743   00044a 0a                                  ld      a,(bc)                          ;[054a] 0a
   744   00044b 0a                                  ld      a,(bc)                          ;[054b] 0a
   745   00044c 00                                  nop                                     ;[054c] 00
   746   00044d 217606                              ld      hl,$0676                        ;[054d] 21 76 06
   747   000450 3a7a06                              ld      a,($067a)                       ;[0550] 3a 7a 06
   748   000453 3c                                  inc     a                               ;[0553] 3c
   749   000454 be                                  cp      (hl)                            ;[0554] be
   750   000455 3012                                jr      nc,$0569                        ;[0555] 30 12
   751   000457 cd1507                              call    $0715                           ;[0557] cd 15 07
   752   00045a 61                                  ld      h,c                             ;[055a] 61
   753   00045b 62                                  ld      h,d                             ;[055b] 62
   754   00045c 6f                                  ld      l,a                             ;[055c] 6f
   755   00045d 72                                  ld      (hl),d                          ;[055d] 72
   756   00045e 74                                  ld      (hl),h                          ;[055e] 74
   757   00045f 65                                  ld      h,l                             ;[055f] 65
   758   000460 64                                  ld      h,h                             ;[0560] 64
   759   000461 202e                                jr      nz,$0591                        ;[0561] 20 2e
   760   000463 2e2e                                ld      l,$2e                           ;[0563] 2e 2e
   761   000465 2000                                jr      nz,$0567                        ;[0565] 20 00
   762   000467 180d                                jr      $0576                           ;[0567] 18 0d
   763   000469 cd1507                              call    $0715                           ;[0569] cd 15 07
   764   00046c 64                                  ld      h,h                             ;[056c] 64
   765   00046d 6f                                  ld      l,a                             ;[056d] 6f
   766   00046e 6e                                  ld      l,(hl)                          ;[056e] 6e
   767   00046f 65                                  ld      h,l                             ;[056f] 65
   768   000470 202e                                jr      nz,$05a0                        ;[0570] 20 2e
   769   000472 2e2e                                ld      l,$2e                           ;[0572] 2e 2e
   770   000474 2000                                jr      nz,$0576                        ;[0574] 20 00
   771   000476 2a3606                              ld      hl,($0636)                      ;[0576] 2a 36 06
   772   000479 7c                                  ld      a,h                             ;[0579] 7c
   773   00047a b5                                  or      l                               ;[057a] b5
   774   00047b 201d                                jr      nz,$059a                        ;[057b] 20 1d
   775   00047d cd1507                              call    $0715                           ;[057d] cd 15 07
   776   000480 6e                                  ld      l,(hl)                          ;[0580] 6e
   777   000481 6f                                  ld      l,a                             ;[0581] 6f
   778   000482 2062                                jr      nz,$05e6                        ;[0582] 20 62
   779   000484 61                                  ld      h,c                             ;[0584] 61
   780   000485 64                                  ld      h,h                             ;[0585] 64
   781   000486 2073                                jr      nz,$05fb                        ;[0586] 20 73
   782   000488 65                                  ld      h,l                             ;[0588] 65
   783   000489 63                                  ld      h,e                             ;[0589] 63
   784   00048a 74                                  ld      (hl),h                          ;[058a] 74
   785   00048b 6f                                  ld      l,a                             ;[058b] 6f
   786   00048c 72                                  ld      (hl),d                          ;[058c] 72
   787   00048d 73                                  ld      (hl),e                          ;[058d] 73
   788   00048e 2064                                jr      nz,$05f4                        ;[058e] 20 64
   789   000490 65                                  ld      h,l                             ;[0590] 65
   790   000491 74                                  ld      (hl),h                          ;[0591] 74
   791   000492 65                                  ld      h,l                             ;[0592] 65
   792   000493 63                                  ld      h,e                             ;[0593] 63
   793   000494 74                                  ld      (hl),h                          ;[0594] 74
   794   000495 65                                  ld      h,l                             ;[0595] 65
   795   000496 64                                  ld      h,h                             ;[0596] 64
   796   000497 00                                  nop                                     ;[0597] 00
   797   000498 181f                                jr      $05b9                           ;[0598] 18 1f
   798   00049a 2a3606                              ld      hl,($0636)                      ;[059a] 2a 36 06
   799   00049d cd2b07                              call    $072b                           ;[059d] cd 2b 07
   800   0004a0 cd1507                              call    $0715                           ;[05a0] cd 15 07
   801   0004a3 2062                                jr      nz,$0607                        ;[05a3] 20 62
   802   0004a5 61                                  ld      h,c                             ;[05a5] 61
   803   0004a6 64                                  ld      h,h                             ;[05a6] 64
   804   0004a7 2073                                jr      nz,$061c                        ;[05a7] 20 73
   805   0004a9 65                                  ld      h,l                             ;[05a9] 65
   806   0004aa 63                                  ld      h,e                             ;[05aa] 63
   807   0004ab 74                                  ld      (hl),h                          ;[05ab] 74
   808   0004ac 6f                                  ld      l,a                             ;[05ac] 6f
   809   0004ad 72                                  ld      (hl),d                          ;[05ad] 72
   810   0004ae 73                                  ld      (hl),e                          ;[05ae] 73
   811   0004af 2064                                jr      nz,$0615                        ;[05af] 20 64
   812   0004b1 65                                  ld      h,l                             ;[05b1] 65
   813   0004b2 74                                  ld      (hl),h                          ;[05b2] 74
   814   0004b3 65                                  ld      h,l                             ;[05b3] 65
   815   0004b4 63                                  ld      h,e                             ;[05b4] 63
   816   0004b5 74                                  ld      (hl),h                          ;[05b5] 74
   817   0004b6 65                                  ld      h,l                             ;[05b6] 65
   818   0004b7 64                                  ld      h,h                             ;[05b7] 64
   819   0004b8 00                                  nop                                     ;[05b8] 00
   820   0004b9 cd1507                              call    $0715                           ;[05b9] cd 15 07
   821   0004bc 0d                                  dec     c                               ;[05bc] 0d
   822   0004bd 0a                                  ld      a,(bc)                          ;[05bd] 0a
   823   0004be 00                                  nop                                     ;[05be] 00
   824   0004bf c38b03                              jp      $038b                           ;[05bf] c3 8b 03
   825   0004c2 e9                                  jp      (hl)                            ;[05c2] e9
   826   0004c3 cd1507                              call    $0715                           ;[05c3] cd 15 07
   827   0004c6 0d                                  dec     c                               ;[05c6] 0d
   828   0004c7 54                                  ld      d,h                             ;[05c7] 54
   829   0004c8 52                                  ld      d,d                             ;[05c8] 52
   830   0004c9 41                                  ld      b,c                             ;[05c9] 41
   831   0004ca 43                                  ld      b,e                             ;[05ca] 43
   832   0004cb 4b                                  ld      c,e                             ;[05cb] 4b
   833   0004cc 2000                                jr      nz,$05ce                        ;[05cc] 20 00
   834   0004ce 3a7f06                              ld      a,($067f)                       ;[05ce] 3a 7f 06
   835   0004d1 b7                                  or      a                               ;[05d1] b7
   836   0004d2 3a7a06                              ld      a,($067a)                       ;[05d2] 3a 7a 06
   837   0004d5 2801                                jr      z,$05d8                         ;[05d5] 28 01
   838   0004d7 87                                  add     a                               ;[05d7] 87
   839   0004d8 2600                                ld      h,$00                           ;[05d8] 26 00
   840   0004da 6f                                  ld      l,a                             ;[05da] 6f
   841   0004db cd2b07                              call    $072b                           ;[05db] cd 2b 07
   842   0004de 3a8006                              ld      a,($0680)                       ;[05de] 3a 80 06
   843   0004e1 cb7f                                bit     7,a                             ;[05e1] cb 7f
   844   0004e3 2815                                jr      z,$05fa                         ;[05e3] 28 15
   845   0004e5 cd1507                              call    $0715                           ;[05e5] cd 15 07
   846   0004e8 2020                                jr      nz,$060a                        ;[05e8] 20 20
   847   0004ea 53                                  ld      d,e                             ;[05ea] 53
   848   0004eb 49                                  ld      c,c                             ;[05eb] 49
   849   0004ec 44                                  ld      b,h                             ;[05ec] 44
   850   0004ed 45                                  ld      b,l                             ;[05ed] 45
   851   0004ee 2000                                jr      nz,$05f0                        ;[05ee] 20 00
   852   0004f0 3a3a06                              ld      a,($063a)                       ;[05f0] 3a 3a 06
   853   0004f3 e601                                and     $01                             ;[05f3] e6 01
   854   0004f5 c630                                add     $30                             ;[05f5] c6 30
   855   0004f7 cd8a06                              call    $068a                           ;[05f7] cd 8a 06
   856   0004fa 2a3606                              ld      hl,($0636)                      ;[05fa] 2a 36 06
   857   0004fd ed5b3806                            ld      de,($0638)                      ;[05fd] ed 5b 38 06
   858   000501 b7                                  or      a                               ;[0601] b7
   859   000502 ed52                                sbc     hl,de                           ;[0602] ed 52
   860   000504 282c                                jr      z,$0632                         ;[0604] 28 2c
   861   000506 cd1507                              call    $0715                           ;[0606] cd 15 07
   862   000509 07                                  rlca                                    ;[0609] 07
   863   00050a 2020                                jr      nz,$062c                        ;[060a] 20 20
   864   00050c 2a2a2a                              ld      hl,($2a2a)                      ;[060c] 2a 2a 2a
   865   00050f 2000                                jr      nz,$0611                        ;[060f] 20 00
   866   000511 cd2b07                              call    $072b                           ;[0611] cd 2b 07
   867   000514 cd1507                              call    $0715                           ;[0614] cd 15 07
   868   000517 2062                                jr      nz,$067b                        ;[0617] 20 62
   869   000519 61                                  ld      h,c                             ;[0619] 61
   870   00051a 64                                  ld      h,h                             ;[061a] 64
   871   00051b 2073                                jr      nz,$0690                        ;[061b] 20 73
   872   00051d 65                                  ld      h,l                             ;[061d] 65
   873   00051e 63                                  ld      h,e                             ;[061e] 63
   874   00051f 74                                  ld      (hl),h                          ;[061f] 74
   875   000520 6f                                  ld      l,a                             ;[0620] 6f
   876   000521 72                                  ld      (hl),d                          ;[0621] 72
   877   000522 2873                                jr      z,$0697                         ;[0622] 28 73
   878   000524 29                                  add     hl,hl                           ;[0624] 29
   879   000525 202a                                jr      nz,$0651                        ;[0625] 20 2a
   880   000527 2a2a0d                              ld      hl,($0d2a)                      ;[0627] 2a 2a 0d
   881   00052a 0a                                  ld      a,(bc)                          ;[062a] 0a
   882   00052b 00                                  nop                                     ;[062b] 00
   883   00052c 2a3606                              ld      hl,($0636)                      ;[062c] 2a 36 06
   884   00052f 223806                              ld      ($0638),hl                      ;[062f] 22 38 06
   885   000532 cdf906                              call    $06f9                           ;[0632] cd f9 06
   886   000535 c9                                  ret                                     ;[0635] c9
   887                          
   888   000536 00                                  nop                                     ;[0636] 00
   889   000537 00                                  nop                                     ;[0637] 00
   890   000538 00                                  nop                                     ;[0638] 00
   891   000539 00                                  nop                                     ;[0639] 00
   892   00053a 00                                  nop                                     ;[063a] 00
   893   00053b d60a                                sub     $0a                             ;[063b] d6 0a
   894   00053d 014d1a                              ld      bc,$1a4d                        ;[063d] 01 4d 1a
   895   000540 58                                  ld      e,b                             ;[0640] 58
   896   000541 14                                  inc     d                               ;[0641] 14
   897   000542 fb                                  ei                                      ;[0642] fb
   898   000543 0a                                  ld      a,(bc)                          ;[0643] 0a
   899   000544 03                                  inc     bc                              ;[0644] 03
   900   000545 4d                                  ld      c,l                             ;[0645] 4d
   901   000546 1a                                  ld      a,(de)                          ;[0646] 1a
   902   000547 b0                                  or      b                               ;[0647] b0
   903   000548 2824                                jr      z,$066e                         ;[0648] 28 24
   904   00054a 0b                                  dec     bc                              ;[064a] 0b
   905   00054b 03                                  inc     bc                              ;[064b] 03
   906   00054c 4d                                  ld      c,l                             ;[064c] 4d
   907   00054d 10b0                                djnz    $05ff                           ;[064d] 10 b0
   908   00054f 2845                                jr      z,$0696                         ;[064f] 28 45
   909   000551 0b                                  dec     bc                              ;[0651] 0b
   910   000552 03                                  inc     bc                              ;[0652] 03
   911   000553 4d                                  ld      c,l                             ;[0653] 4d
   912   000554 09                                  add     hl,bc                           ;[0654] 09
   913   000555 b0                                  or      b                               ;[0655] b0
   914   000556 2866                                jr      z,$06be                         ;[0656] 28 66
   915   000558 0b                                  dec     bc                              ;[0658] 0b
   916   000559 012812                              ld      bc,$1228                        ;[0659] 01 28 12
   917   00055c 35                                  dec     (hl)                            ;[065c] 35
   918   00055d 0c                                  inc     c                               ;[065d] 0c
   919   00055e 85                                  add     l                               ;[065e] 85
   920   00055f 0b                                  dec     bc                              ;[065f] 0b
   921   000560 03                                  inc     bc                              ;[0660] 03
   922   000561 2812                                jr      z,$0675                         ;[0661] 28 12
   923   000563 6a                                  ld      l,d                             ;[0663] 6a
   924   000564 18a6                                jr      $060c                           ;[0664] 18 a6
   925   000566 0b                                  dec     bc                              ;[0666] 0b
   926   000567 03                                  inc     bc                              ;[0667] 03
   927   000568 280a                                jr      z,$0674                         ;[0668] 28 0a
   928   00056a 6a                                  ld      l,d                             ;[066a] 6a
   929   00056b 18c7                                jr      $0634                           ;[066b] 18 c7
   930   00056d 0b                                  dec     bc                              ;[066d] 0b
   931   00056e 03                                  inc     bc                              ;[066e] 03
   932   00056f 2805                                jr      z,$0676                         ;[066f] 28 05
   933   000571 6a                                  ld      l,d                             ;[0671] 6a
   934   000572 1800                                jr      $0674                           ;[0672] 18 00
   935   000574 00                                  nop                                     ;[0674] 00
   936   000575 00                                  nop                                     ;[0675] 00
   937   000576 00                                  nop                                     ;[0676] 00
   938   000577 00                                  nop                                     ;[0677] 00
   939   000578 00                                  nop                                     ;[0678] 00
   940   000579 00                                  nop                                     ;[0679] 00
   941   00057a 00                                  nop                                     ;[067a] 00
   942   00057b 00                                  nop                                     ;[067b] 00
   943   00057c 00                                  nop                                     ;[067c] 00
   944   00057d 00                                  nop                                     ;[067d] 00
   945   00057e 00                                  nop                                     ;[067e] 00
   946   00057f 00                                  nop                                     ;[067f] 00
   947   000580 00                                  nop                                     ;[0680] 00
   948   000581 00                                  nop                                     ;[0681] 00
   949   000582 00                                  nop                                     ;[0682] 00
   950   000583 00                                  nop                                     ;[0683] 00
   951   000584 00                                  nop                                     ;[0684] 00
   952   000585 00                                  nop                                     ;[0685] 00
   953   000586 00                                  nop                                     ;[0686] 00
   954   000587 00                                  nop                                     ;[0687] 00
   955   000588 00                                  nop                                     ;[0688] 00
   956   000589 00                                  nop                                     ;[0689] 00
   957   00058a f5                                  push    af                              ;[068a] f5
   958   00058b c5                                  push    bc                              ;[068b] c5
   959   00058c d5                                  push    de                              ;[068c] d5
   960   00058d e5                                  push    hl                              ;[068d] e5
   961   00058e 4f                                  ld      c,a                             ;[068e] 4f
   962   00058f 2a0100                              ld      hl,($0001)                      ;[068f] 2a 01 00
   963   000592 110900                              ld      de,$0009                        ;[0692] 11 09 00
   964   000595 19                                  add     hl,de                           ;[0695] 19
   965   000596 cdc606                              call    $06c6                           ;[0696] cd c6 06
   966   000599 e1                                  pop     hl                              ;[0699] e1
   967   00059a d1                                  pop     de                              ;[069a] d1
   968   00059b c1                                  pop     bc                              ;[069b] c1
   969   00059c f1                                  pop     af                              ;[069c] f1
   970   00059d c9                                  ret                                     ;[069d] c9
   971                          
   972   00059e e5                                  push    hl                              ;[069e] e5
   973   00059f d5                                  push    de                              ;[069f] d5
   974   0005a0 c5                                  push    bc                              ;[06a0] c5
   975   0005a1 2a0100                              ld      hl,($0001)                      ;[06a1] 2a 01 00
   976   0005a4 110600                              ld      de,$0006                        ;[06a4] 11 06 00
   977   0005a7 19                                  add     hl,de                           ;[06a7] 19
   978   0005a8 cdc606                              call    $06c6                           ;[06a8] cd c6 06
   979   0005ab fe60                                cp      $60                             ;[06ab] fe 60
   980   0005ad 3802                                jr      c,$06b1                         ;[06ad] 38 02
   981   0005af d620                                sub     $20                             ;[06af] d6 20
   982   0005b1 c1                                  pop     bc                              ;[06b1] c1
   983   0005b2 d1                                  pop     de                              ;[06b2] d1
   984   0005b3 e1                                  pop     hl                              ;[06b3] e1
   985   0005b4 c9                                  ret                                     ;[06b4] c9
   986                          
   987   0005b5 e5                                  push    hl                              ;[06b5] e5
   988   0005b6 d5                                  push    de                              ;[06b6] d5
   989   0005b7 c5                                  push    bc                              ;[06b7] c5
   990   0005b8 2a0100                              ld      hl,($0001)                      ;[06b8] 2a 01 00
   991   0005bb 110300                              ld      de,$0003                        ;[06bb] 11 03 00
   992   0005be 19                                  add     hl,de                           ;[06be] 19
   993   0005bf cdc606                              call    $06c6                           ;[06bf] cd c6 06
   994   0005c2 c1                                  pop     bc                              ;[06c2] c1
   995   0005c3 d1                                  pop     de                              ;[06c3] d1
   996   0005c4 e1                                  pop     hl                              ;[06c4] e1
   997   0005c5 c9                                  ret                                     ;[06c5] c9
   998                          
   999   0005c6 e9                                  jp      (hl)                            ;[06c6] e9
  1000   0005c7 cd1507                              call    $0715                           ;[06c7] cd 15 07
  1001   0005ca 2008                                jr      nz,$06d4                        ;[06ca] 20 08
  1002   0005cc 00                                  nop                                     ;[06cc] 00
  1003   0005cd cd9e06                              call    $069e                           ;[06cd] cd 9e 06
  1004   0005d0 fe03                                cp      $03                             ;[06d0] fe 03
  1005   0005d2 caf501                              jp      z,$01f5                         ;[06d2] ca f5 01
  1006   0005d5 fe20                                cp      $20                             ;[06d5] fe 20
  1007   0005d7 38f4                                jr      c,$06cd                         ;[06d7] 38 f4
  1008   0005d9 4f                                  ld      c,a                             ;[06d9] 4f
  1009   0005da cd8a06                              call    $068a                           ;[06da] cd 8a 06
  1010   0005dd cd9e06                              call    $069e                           ;[06dd] cd 9e 06
  1011   0005e0 fe08                                cp      $08                             ;[06e0] fe 08
  1012   0005e2 2005                                jr      nz,$06e9                        ;[06e2] 20 05
  1013   0005e4 cd8a06                              call    $068a                           ;[06e4] cd 8a 06
  1014   0005e7 18de                                jr      $06c7                           ;[06e7] 18 de
  1015   0005e9 fe03                                cp      $03                             ;[06e9] fe 03
  1016   0005eb caf501                              jp      z,$01f5                         ;[06eb] ca f5 01
  1017   0005ee fe0d                                cp      $0d                             ;[06ee] fe 0d
  1018   0005f0 20eb                                jr      nz,$06dd                        ;[06f0] 20 eb
  1019   0005f2 cd1507                              call    $0715                           ;[06f2] cd 15 07
  1020   0005f5 08                                  ex      af,af'                          ;[06f5] 08
  1021   0005f6 00                                  nop                                     ;[06f6] 00
  1022   0005f7 79                                  ld      a,c                             ;[06f7] 79
  1023   0005f8 c9                                  ret                                     ;[06f8] c9
  1024                          
  1025   0005f9 3ae80b                              ld      a,($0be8)                       ;[06f9] 3a e8 0b
  1026   0005fc b7                                  or      a                               ;[06fc] b7
  1027   0005fd c0                                  ret     nz                              ;[06fd] c0
  1028   0005fe cdb506                              call    $06b5                           ;[06fe] cd b5 06
  1029   000601 b7                                  or      a                               ;[0701] b7
  1030   000602 c8                                  ret     z                               ;[0702] c8
  1031   000603 cd9e06                              call    $069e                           ;[0703] cd 9e 06
  1032   000606 32e80b                              ld      ($0be8),a                       ;[0706] 32 e8 0b
  1033   000609 b7                                  or      a                               ;[0709] b7
  1034   00060a c9                                  ret                                     ;[070a] c9
  1035                          
  1036   00060b af                                  xor     a                               ;[070b] af
  1037   00060c 32e80b                              ld      ($0be8),a                       ;[070c] 32 e8 0b
  1038   00060f cdf906                              call    $06f9                           ;[070f] cd f9 06
  1039   000612 20f7                                jr      nz,$070b                        ;[0712] 20 f7
  1040   000614 c9                                  ret                                     ;[0714] c9
  1041                          
  1042   000615 e3                                  ex      (sp),hl                         ;[0715] e3
  1043   000616 cd1b07                              call    $071b                           ;[0716] cd 1b 07
  1044   000619 e3                                  ex      (sp),hl                         ;[0719] e3
  1045   00061a c9                                  ret                                     ;[071a] c9
  1046                          
  1047   00061b 7e                                  ld      a,(hl)                          ;[071b] 7e
  1048   00061c 23                                  inc     hl                              ;[071c] 23
  1049   00061d fe00                                cp      $00                             ;[071d] fe 00
  1050   00061f c8                                  ret     z                               ;[071f] c8
  1051   000620 cd8a06                              call    $068a                           ;[0720] cd 8a 06
  1052   000623 18f6                                jr      $071b                           ;[0723] 18 f6
  1053   000625 3e20                                ld      a,$20                           ;[0725] 3e 20
  1054   000627 cd3107                              call    $0731                           ;[0727] cd 31 07
  1055   00062a c9                                  ret                                     ;[072a] c9
  1056                          
  1057   00062b 3e00                                ld      a,$00                           ;[072b] 3e 00
  1058   00062d cd3107                              call    $0731                           ;[072d] cd 31 07
  1059   000630 c9                                  ret                                     ;[0730] c9
  1060                          
  1061   000631 d5                                  push    de                              ;[0731] d5
  1062   000632 c5                                  push    bc                              ;[0732] c5
  1063   000633 4f                                  ld      c,a                             ;[0733] 4f
  1064   000634 fd216d07                            ld      iy,$076d                        ;[0734] fd 21 6d 07
  1065   000638 cb80                                res     0,b                             ;[0738] cb 80
  1066   00063a fd5e00                              ld      e,(iy+$00)                      ;[073a] fd 5e 00
  1067   00063d fd23                                inc     iy                              ;[073d] fd 23
  1068   00063f fd5600                              ld      d,(iy+$00)                      ;[073f] fd 56 00
  1069   000642 fd23                                inc     iy                              ;[0742] fd 23
  1070   000644 1d                                  dec     e                               ;[0744] 1d
  1071   000645 281d                                jr      z,$0764                         ;[0745] 28 1d
  1072   000647 af                                  xor     a                               ;[0747] af
  1073   000648 ed52                                sbc     hl,de                           ;[0748] ed 52
  1074   00064a 3803                                jr      c,$074f                         ;[074a] 38 03
  1075   00064c 3c                                  inc     a                               ;[074c] 3c
  1076   00064d 18f9                                jr      $0748                           ;[074d] 18 f9
  1077   00064f 19                                  add     hl,de                           ;[074f] 19
  1078   000650 c630                                add     $30                             ;[0750] c6 30
  1079   000652 fe30                                cp      $30                             ;[0752] fe 30
  1080   000654 2007                                jr      nz,$075d                        ;[0754] 20 07
  1081   000656 cb40                                bit     0,b                             ;[0756] cb 40
  1082   000658 2005                                jr      nz,$075f                        ;[0758] 20 05
  1083   00065a 79                                  ld      a,c                             ;[075a] 79
  1084   00065b 1802                                jr      $075f                           ;[075b] 18 02
  1085   00065d cbc0                                set     0,b                             ;[075d] cb c0
  1086   00065f cd8a06                              call    $068a                           ;[075f] cd 8a 06
  1087   000662 18d6                                jr      $073a                           ;[0762] 18 d6
  1088   000664 7d                                  ld      a,l                             ;[0764] 7d
  1089   000665 c630                                add     $30                             ;[0765] c6 30
  1090   000667 cd8a06                              call    $068a                           ;[0767] cd 8a 06
  1091   00066a c1                                  pop     bc                              ;[076a] c1
  1092   00066b d1                                  pop     de                              ;[076b] d1
  1093   00066c c9                                  ret                                     ;[076c] c9
  1094                          
  1095   00066d 1127e9                              ld      de,$e927                        ;[076d] 11 27 e9
  1096   000670 03                                  inc     bc                              ;[0770] 03
  1097   000671 65                                  ld      h,l                             ;[0771] 65
  1098   000672 00                                  nop                                     ;[0772] 00
  1099   000673 0b                                  dec     bc                              ;[0773] 0b
  1100   000674 00                                  nop                                     ;[0774] 00
  1101   000675 0100af                              ld      bc,$af00                        ;[0775] 01 00 af
  1102   000678 327a06                              ld      ($067a),a                       ;[0778] 32 7a 06
  1103   00067b 3e0b                                ld      a,$0b                           ;[077b] 3e 0b
  1104   00067d cd7509                              call    $0975                           ;[077d] cd 75 09
  1105   000680 ee04                                xor     $04                             ;[0780] ee 04
  1106   000682 e684                                and     $84                             ;[0782] e6 84
  1107   000684 c2e008                              jp      nz,$08e0                        ;[0784] c2 e0 08
  1108   000687 21000d                              ld      hl,$0d00                        ;[0787] 21 00 0d
  1109   00068a 3a7906                              ld      a,($0679)                       ;[078a] 3a 79 06
  1110   00068d 3c                                  inc     a                               ;[078d] 3c
  1111   00068e 47                                  ld      b,a                             ;[078e] 47
  1112   00068f 3676                                ld      (hl),$76                        ;[078f] 36 76
  1113   000691 23                                  inc     hl                              ;[0791] 23
  1114   000692 36ed                                ld      (hl),$ed                        ;[0792] 36 ed
  1115   000694 23                                  inc     hl                              ;[0794] 23
  1116   000695 36a3                                ld      (hl),$a3                        ;[0795] 36 a3
  1117   000697 23                                  inc     hl                              ;[0797] 23
  1118   000698 3620                                ld      (hl),$20                        ;[0798] 36 20
  1119   00069a 23                                  inc     hl                              ;[079a] 23
  1120   00069b 36fb                                ld      (hl),$fb                        ;[079b] 36 fb
  1121   00069d 23                                  inc     hl                              ;[079d] 23
  1122   00069e 10ef                                djnz    $078f                           ;[079e] 10 ef
  1123   0006a0 3ec9                                ld      a,$c9                           ;[07a0] 3e c9
  1124   0006a2 77                                  ld      (hl),a                          ;[07a2] 77
  1125   0006a3 326600                              ld      ($0066),a                       ;[07a3] 32 66 00
  1126   0006a6 23                                  inc     hl                              ;[07a6] 23
  1127   0006a7 227c06                              ld      ($067c),hl                      ;[07a7] 22 7c 06
  1128   0006aa af                                  xor     a                               ;[07aa] af
  1129   0006ab 323a06                              ld      ($063a),a                       ;[07ab] 32 3a 06
  1130   0006ae 327a06                              ld      ($067a),a                       ;[07ae] 32 7a 06
  1131   0006b1 b7                                  or      a                               ;[07b1] b7
  1132   0006b2 280e                                jr      z,$07c2                         ;[07b2] 28 0e
  1133   0006b4 3e4b                                ld      a,$4b                           ;[07b4] 3e 4b
  1134   0006b6 cd7509                              call    $0975                           ;[07b6] cd 75 09
  1135   0006b9 3a7f06                              ld      a,($067f)                       ;[07b9] 3a 7f 06
  1136   0006bc b7                                  or      a                               ;[07bc] b7
  1137   0006bd 3e4b                                ld      a,$4b                           ;[07bd] 3e 4b
  1138   0006bf c47509                              call    nz,$0975                        ;[07bf] c4 75 09
  1139   0006c2 3a8706                              ld      a,($0687)                       ;[07c2] 3a 87 06
  1140   0006c5 213a06                              ld      hl,$063a                        ;[07c5] 21 3a 06
  1141   0006c8 cb46                                bit     0,(hl)                          ;[07c8] cb 46
  1142   0006ca 2804                                jr      z,$07d0                         ;[07ca] 28 04
  1143   0006cc cbef                                set     5,a                             ;[07cc] cb ef
  1144   0006ce 1802                                jr      $07d2                           ;[07ce] 18 02
  1145   0006d0 cbaf                                res     5,a                             ;[07d0] cb af
  1146   0006d2 d330                                out     ($30),a                         ;[07d2] d3 30
  1147   0006d4 dd2a7306                            ld      ix,($0673)                      ;[07d4] dd 2a 73 06
  1148   0006d8 fd21d609                            ld      iy,$09d6                        ;[07d8] fd 21 d6 09
  1149   0006dc cdee08                              call    $08ee                           ;[07dc] cd ee 08
  1150   0006df 3a7a06                              ld      a,($067a)                       ;[07df] 3a 7a 06
  1151   0006e2 d341                                out     ($41),a                         ;[07e2] d3 41
  1152   0006e4 af                                  xor     a                               ;[07e4] af
  1153   0006e5 d356                                out     ($56),a                         ;[07e5] d3 56
  1154   0006e7 3c                                  inc     a                               ;[07e7] 3c
  1155   0006e8 d354                                out     ($54),a                         ;[07e8] d3 54
  1156   0006ea 2a7c06                              ld      hl,($067c)                      ;[07ea] 2a 7c 06
  1157   0006ed f3                                  di                                      ;[07ed] f3
  1158   0006ee 3a3a06                              ld      a,($063a)                       ;[07ee] 3a 3a 06
  1159   0006f1 cb47                                bit     0,a                             ;[07f1] cb 47
  1160   0006f3 3ef4                                ld      a,$f4                           ;[07f3] 3e f4
  1161   0006f5 2802                                jr      z,$07f9                         ;[07f5] 28 02
  1162   0006f7 cbcf                                set     1,a                             ;[07f7] cb cf
  1163   0006f9 cd9109                              call    $0991                           ;[07f9] cd 91 09
  1164   0006fc 3a7806                              ld      a,($0678)                       ;[07fc] 3a 78 06
  1165   0006ff 47                                  ld      b,a                             ;[07ff] 47
  1166   000700 0e43                                ld      c,$43                           ;[0800] 0e 43
  1167   000702 cd000d                              call    $0d00                           ;[0802] cd 00 0d
  1168   000705 fb                                  ei                                      ;[0805] fb
  1169   000706 cd7809                              call    $0978                           ;[0806] cd 78 09
  1170   000709 3a7706                              ld      a,($0677)                       ;[0809] 3a 77 06
  1171   00070c 47                                  ld      b,a                             ;[080c] 47
  1172   00070d dd21d609                            ld      ix,$09d6                        ;[080d] dd 21 d6 09
  1173   000711 cd6509                              call    $0965                           ;[0811] cd 65 09
  1174   000714 cb7f                                bit     7,a                             ;[0814] cb 7f
  1175   000716 c2e008                              jp      nz,$08e0                        ;[0816] c2 e0 08
  1176   000719 e618                                and     $18                             ;[0819] e6 18
  1177   00071b 2816                                jr      z,$0833                         ;[081b] 28 16
  1178   00071d cd9909                              call    $0999                           ;[081d] cd 99 09
  1179   000720 cd6509                              call    $0965                           ;[0820] cd 65 09
  1180   000723 cb7f                                bit     7,a                             ;[0823] cb 7f
  1181   000725 c2e008                              jp      nz,$08e0                        ;[0825] c2 e0 08
  1182   000728 e618                                and     $18                             ;[0828] e6 18
  1183   00072a 2807                                jr      z,$0833                         ;[082a] 28 07
  1184   00072c 2a3606                              ld      hl,($0636)                      ;[082c] 2a 36 06
  1185   00072f 23                                  inc     hl                              ;[082f] 23
  1186   000730 223606                              ld      ($0636),hl                      ;[0830] 22 36 06
  1187   000733 dd23                                inc     ix                              ;[0833] dd 23
  1188   000735 10da                                djnz    $0811                           ;[0835] 10 da
  1189   000737 cd9909                              call    $0999                           ;[0837] cd 99 09
  1190   00073a 1620                                ld      d,$20                           ;[083a] 16 20
  1191   00073c 3a7e06                              ld      a,($067e)                       ;[083c] 3a 7e 06
  1192   00073f e603                                and     $03                             ;[083f] e6 03
  1193   000741 2805                                jr      z,$0848                         ;[0841] 28 05
  1194   000743 cb22                                sla     d                               ;[0843] cb 22
  1195   000745 3d                                  dec     a                               ;[0845] 3d
  1196   000746 20fb                                jr      nz,$0843                        ;[0846] 20 fb
  1197   000748 3a7706                              ld      a,($0677)                       ;[0848] 3a 77 06
  1198   00074b cb3f                                srl     a                               ;[084b] cb 3f
  1199   00074d ce00                                adc     $00                             ;[084d] ce 00
  1200   00074f 4f                                  ld      c,a                             ;[084f] 4f
  1201   000750 21d609                              ld      hl,$09d6                        ;[0850] 21 d6 09
  1202   000753 f3                                  di                                      ;[0853] f3
  1203   000754 42                                  ld      b,d                             ;[0854] 42
  1204   000755 7e                                  ld      a,(hl)                          ;[0855] 7e
  1205   000756 23                                  inc     hl                              ;[0856] 23
  1206   000757 23                                  inc     hl                              ;[0857] 23
  1207   000758 d342                                out     ($42),a                         ;[0858] d3 42
  1208   00075a 3a3a06                              ld      a,($063a)                       ;[085a] 3a 3a 06
  1209   00075d cb47                                bit     0,a                             ;[085d] cb 47
  1210   00075f 3ea8                                ld      a,$a8                           ;[085f] 3e a8
  1211   000761 2802                                jr      z,$0865                         ;[0861] 28 02
  1212   000763 cbcf                                set     1,a                             ;[0863] cb cf
  1213   000765 cd9109                              call    $0991                           ;[0865] cd 91 09
  1214   000768 3ee5                                ld      a,$e5                           ;[0868] 3e e5
  1215   00076a 76                                  halt                                    ;[086a] 76
  1216   00076b d343                                out     ($43),a                         ;[086b] d3 43
  1217   00076d 76                                  halt                                    ;[086d] 76
  1218   00076e d343                                out     ($43),a                         ;[086e] d3 43
  1219   000770 76                                  halt                                    ;[0870] 76
  1220   000771 d343                                out     ($43),a                         ;[0871] d3 43
  1221   000773 76                                  halt                                    ;[0873] 76
  1222   000774 d343                                out     ($43),a                         ;[0874] d3 43
  1223   000776 10f2                                djnz    $086a                           ;[0876] 10 f2
  1224   000778 fb                                  ei                                      ;[0878] fb
  1225   000779 cd7809                              call    $0978                           ;[0879] cd 78 09
  1226   00077c 0d                                  dec     c                               ;[087c] 0d
  1227   00077d 20d4                                jr      nz,$0853                        ;[087d] 20 d4
  1228   00077f 3a7706                              ld      a,($0677)                       ;[087f] 3a 77 06
  1229   000782 cb3f                                srl     a                               ;[0882] cb 3f
  1230   000784 4f                                  ld      c,a                             ;[0884] 4f
  1231   000785 21d709                              ld      hl,$09d7                        ;[0885] 21 d7 09
  1232   000788 f3                                  di                                      ;[0888] f3
  1233   000789 42                                  ld      b,d                             ;[0889] 42
  1234   00078a 7e                                  ld      a,(hl)                          ;[088a] 7e
  1235   00078b 23                                  inc     hl                              ;[088b] 23
  1236   00078c 23                                  inc     hl                              ;[088c] 23
  1237   00078d d342                                out     ($42),a                         ;[088d] d3 42
  1238   00078f 3a3a06                              ld      a,($063a)                       ;[088f] 3a 3a 06
  1239   000792 cb47                                bit     0,a                             ;[0892] cb 47
  1240   000794 3ea8                                ld      a,$a8                           ;[0894] 3e a8
  1241   000796 2802                                jr      z,$089a                         ;[0896] 28 02
  1242   000798 cbcf                                set     1,a                             ;[0898] cb cf
  1243   00079a cd9109                              call    $0991                           ;[089a] cd 91 09
  1244   00079d 3ee5                                ld      a,$e5                           ;[089d] 3e e5
  1245   00079f 76                                  halt                                    ;[089f] 76
  1246   0007a0 d343                                out     ($43),a                         ;[08a0] d3 43
  1247   0007a2 76                                  halt                                    ;[08a2] 76
  1248   0007a3 d343                                out     ($43),a                         ;[08a3] d3 43
  1249   0007a5 76                                  halt                                    ;[08a5] 76
  1250   0007a6 d343                                out     ($43),a                         ;[08a6] d3 43
  1251   0007a8 76                                  halt                                    ;[08a8] 76
  1252   0007a9 d343                                out     ($43),a                         ;[08a9] d3 43
  1253   0007ab 10f2                                djnz    $089f                           ;[08ab] 10 f2
  1254   0007ad fb                                  ei                                      ;[08ad] fb
  1255   0007ae cd7809                              call    $0978                           ;[08ae] cd 78 09
  1256   0007b1 0d                                  dec     c                               ;[08b1] 0d
  1257   0007b2 20d4                                jr      nz,$0888                        ;[08b2] 20 d4
  1258   0007b4 af                                  xor     a                               ;[08b4] af
  1259   0007b5 d354                                out     ($54),a                         ;[08b5] d3 54
  1260   0007b7 3c                                  inc     a                               ;[08b7] 3c
  1261   0007b8 d356                                out     ($56),a                         ;[08b8] d3 56
  1262   0007ba cd9909                              call    $0999                           ;[08ba] cd 99 09
  1263   0007bd cdc305                              call    $05c3                           ;[08bd] cd c3 05
  1264   0007c0 201e                                jr      nz,$08e0                        ;[08c0] 20 1e
  1265   0007c2 3a8006                              ld      a,($0680)                       ;[08c2] 3a 80 06
  1266   0007c5 cb7f                                bit     7,a                             ;[08c5] cb 7f
  1267   0007c7 280b                                jr      z,$08d4                         ;[08c7] 28 0b
  1268   0007c9 3a3a06                              ld      a,($063a)                       ;[08c9] 3a 3a 06
  1269   0007cc ee01                                xor     $01                             ;[08cc] ee 01
  1270   0007ce 323a06                              ld      ($063a),a                       ;[08ce] 32 3a 06
  1271   0007d1 c2c207                              jp      nz,$07c2                        ;[08d1] c2 c2 07
  1272   0007d4 3a7a06                              ld      a,($067a)                       ;[08d4] 3a 7a 06
  1273   0007d7 3c                                  inc     a                               ;[08d7] 3c
  1274   0007d8 217606                              ld      hl,$0676                        ;[08d8] 21 76 06
  1275   0007db be                                  cp      (hl)                            ;[08db] be
  1276   0007dc daae07                              jp      c,$07ae                         ;[08dc] da ae 07
  1277   0007df af                                  xor     a                               ;[08df] af
  1278   0007e0 f5                                  push    af                              ;[08e0] f5
  1279   0007e1 3a7a06                              ld      a,($067a)                       ;[08e1] 3a 7a 06
  1280   0007e4 d341                                out     ($41),a                         ;[08e4] d3 41
  1281   0007e6 d343                                out     ($43),a                         ;[08e6] d3 43
  1282   0007e8 3e10                                ld      a,$10                           ;[08e8] 3e 10
  1283   0007ea d340                                out     ($40),a                         ;[08ea] d3 40
  1284   0007ec f1                                  pop     af                              ;[08ec] f1
  1285   0007ed c9                                  ret                                     ;[08ed] c9
  1286                          
  1287   0007ee 3a7706                              ld      a,($0677)                       ;[08ee] 3a 77 06
  1288   0007f1 4f                                  ld      c,a                             ;[08f1] 4f
  1289   0007f2 dde5                                push    ix                              ;[08f2] dd e5
  1290   0007f4 e1                                  pop     hl                              ;[08f4] e1
  1291   0007f5 46                                  ld      b,(hl)                          ;[08f5] 46
  1292   0007f6 23                                  inc     hl                              ;[08f6] 23
  1293   0007f7 ed5b7c06                            ld      de,($067c)                      ;[08f7] ed 5b 7c 06
  1294   0007fb cd5a09                              call    $095a                           ;[08fb] cd 5a 09
  1295   0007fe 10fb                                djnz    $08fb                           ;[08fe] 10 fb
  1296   000800 46                                  ld      b,(hl)                          ;[0900] 46
  1297   000801 23                                  inc     hl                              ;[0901] 23
  1298   000802 e5                                  push    hl                              ;[0902] e5
  1299   000803 dde1                                pop     ix                              ;[0903] dd e1
  1300   000805 3a7a06                              ld      a,($067a)                       ;[0905] 3a 7a 06
  1301   000808 dd7707                              ld      (ix+$07),a                      ;[0908] dd 77 07
  1302   00080b 3a3a06                              ld      a,($063a)                       ;[090b] 3a 3a 06
  1303   00080e e601                                and     $01                             ;[090e] e6 01
  1304   000810 dd7709                              ld      (ix+$09),a                      ;[0910] dd 77 09
  1305   000813 fd7e00                              ld      a,(iy+$00)                      ;[0913] fd 7e 00
  1306   000816 fd23                                inc     iy                              ;[0916] fd 23
  1307   000818 dd770b                              ld      (ix+$0b),a                      ;[0918] dd 77 0b
  1308   00081b dde5                                push    ix                              ;[091b] dd e5
  1309   00081d e1                                  pop     hl                              ;[091d] e1
  1310   00081e c5                                  push    bc                              ;[091e] c5
  1311   00081f cd5a09                              call    $095a                           ;[091f] cd 5a 09
  1312   000822 10fb                                djnz    $091f                           ;[0922] 10 fb
  1313   000824 014000                              ld      bc,$0040                        ;[0924] 01 40 00
  1314   000827 dd7e0d                              ld      a,(ix+$0d)                      ;[0927] dd 7e 0d
  1315   00082a 327e06                              ld      ($067e),a                       ;[092a] 32 7e 06
  1316   00082d e603                                and     $03                             ;[092d] e6 03
  1317   00082f 2807                                jr      z,$0938                         ;[092f] 28 07
  1318   000831 cb21                                sla     c                               ;[0931] cb 21
  1319   000833 cb10                                rl      b                               ;[0933] cb 10
  1320   000835 3d                                  dec     a                               ;[0935] 3d
  1321   000836 20f9                                jr      nz,$0931                        ;[0936] 20 f9
  1322   000838 3e6d                                ld      a,$6d                           ;[0938] 3e 6d
  1323   00083a 12                                  ld      (de),a                          ;[093a] 12
  1324   00083b 13                                  inc     de                              ;[093b] 13
  1325   00083c 3eb6                                ld      a,$b6                           ;[093c] 3e b6
  1326   00083e 12                                  ld      (de),a                          ;[093e] 12
  1327   00083f 13                                  inc     de                              ;[093f] 13
  1328   000840 0b                                  dec     bc                              ;[0940] 0b
  1329   000841 78                                  ld      a,b                             ;[0941] 78
  1330   000842 b1                                  or      c                               ;[0942] b1
  1331   000843 20f3                                jr      nz,$0938                        ;[0943] 20 f3
  1332   000845 46                                  ld      b,(hl)                          ;[0945] 46
  1333   000846 23                                  inc     hl                              ;[0946] 23
  1334   000847 cd5a09                              call    $095a                           ;[0947] cd 5a 09
  1335   00084a 10fb                                djnz    $0947                           ;[094a] 10 fb
  1336   00084c c1                                  pop     bc                              ;[094c] c1
  1337   00084d 0d                                  dec     c                               ;[094d] 0d
  1338   00084e 20b5                                jr      nz,$0905                        ;[094e] 20 b5
  1339   000850 62                                  ld      h,d                             ;[0950] 62
  1340   000851 6b                                  ld      l,e                             ;[0951] 6b
  1341   000852 13                                  inc     de                              ;[0952] 13
  1342   000853 01e803                              ld      bc,$03e8                        ;[0953] 01 e8 03
  1343   000856 77                                  ld      (hl),a                          ;[0956] 77
  1344   000857 edb0                                ldir                                    ;[0957] ed b0
  1345   000859 c9                                  ret                                     ;[0959] c9
  1346                          
  1347   00085a c5                                  push    bc                              ;[095a] c5
  1348   00085b 46                                  ld      b,(hl)                          ;[095b] 46
  1349   00085c 23                                  inc     hl                              ;[095c] 23
  1350   00085d 7e                                  ld      a,(hl)                          ;[095d] 7e
  1351   00085e 23                                  inc     hl                              ;[095e] 23
  1352   00085f 12                                  ld      (de),a                          ;[095f] 12
  1353   000860 13                                  inc     de                              ;[0960] 13
  1354   000861 10fc                                djnz    $095f                           ;[0961] 10 fc
  1355   000863 c1                                  pop     bc                              ;[0963] c1
  1356   000864 c9                                  ret                                     ;[0964] c9
  1357                          
  1358   000865 dd7e00                              ld      a,(ix+$00)                      ;[0965] dd 7e 00
  1359   000868 d342                                out     ($42),a                         ;[0968] d3 42
  1360   00086a 3a3a06                              ld      a,($063a)                       ;[096a] 3a 3a 06
  1361   00086d cb47                                bit     0,a                             ;[096d] cb 47
  1362   00086f 3e88                                ld      a,$88                           ;[096f] 3e 88
  1363   000871 2802                                jr      z,$0975                         ;[0971] 28 02
  1364   000873 cbcf                                set     1,a                             ;[0973] cb cf
  1365   000875 cd9109                              call    $0991                           ;[0975] cd 91 09
  1366   000878 c5                                  push    bc                              ;[0978] c5
  1367   000879 010000                              ld      bc,$0000                        ;[0979] 01 00 00
  1368   00087c 3e05                                ld      a,$05                           ;[097c] 3e 05
  1369   00087e cd9509                              call    $0995                           ;[097e] cd 95 09
  1370   000881 db40                                in      a,($40)                         ;[0981] db 40
  1371   000883 cb47                                bit     0,a                             ;[0983] cb 47
  1372   000885 2808                                jr      z,$098f                         ;[0985] 28 08
  1373   000887 0d                                  dec     c                               ;[0987] 0d
  1374   000888 20f2                                jr      nz,$097c                        ;[0988] 20 f2
  1375   00088a 10f0                                djnz    $097c                           ;[098a] 10 f0
  1376   00088c 3e80                                ld      a,$80                           ;[098c] 3e 80
  1377   00088e b7                                  or      a                               ;[098e] b7
  1378   00088f c1                                  pop     bc                              ;[098f] c1
  1379   000890 c9                                  ret                                     ;[0990] c9
  1380                          
  1381   000891 d340                                out     ($40),a                         ;[0991] d3 40
  1382   000893 3e0e                                ld      a,$0e                           ;[0993] 3e 0e
  1383   000895 3d                                  dec     a                               ;[0995] 3d
  1384   000896 20fd                                jr      nz,$0995                        ;[0996] 20 fd
  1385   000898 c9                                  ret                                     ;[0998] c9
  1386                          
  1387   000899 3ed0                                ld      a,$d0                           ;[0999] 3e d0
  1388   00089b cd9109                              call    $0991                           ;[099b] cd 91 09
  1389   00089e db40                                in      a,($40)                         ;[099e] db 40
  1390   0008a0 c9                                  ret                                     ;[09a0] c9
  1391                          
  1392   0008a1 11d609                              ld      de,$09d6                        ;[09a1] 11 d6 09
  1393   0008a4 44                                  ld      b,h                             ;[09a4] 44
  1394   0008a5 af                                  xor     a                               ;[09a5] af
  1395   0008a6 12                                  ld      (de),a                          ;[09a6] 12
  1396   0008a7 13                                  inc     de                              ;[09a7] 13
  1397   0008a8 10fc                                djnz    $09a6                           ;[09a8] 10 fc
  1398   0008aa 110000                              ld      de,$0000                        ;[09aa] 11 00 00
  1399   0008ad 0e01                                ld      c,$01                           ;[09ad] 0e 01
  1400   0008af dd21d609                            ld      ix,$09d6                        ;[09af] dd 21 d6 09
  1401   0008b3 dd19                                add     ix,de                           ;[09b3] dd 19
  1402   0008b5 dd7e00                              ld      a,(ix+$00)                      ;[09b5] dd 7e 00
  1403   0008b8 b7                                  or      a                               ;[09b8] b7
  1404   0008b9 2805                                jr      z,$09c0                         ;[09b9] 28 05
  1405   0008bb cdcf09                              call    $09cf                           ;[09bb] cd cf 09
  1406   0008be 18ef                                jr      $09af                           ;[09be] 18 ef
  1407   0008c0 dd7100                              ld      (ix+$00),c                      ;[09c0] dd 71 00
  1408   0008c3 45                                  ld      b,l                             ;[09c3] 45
  1409   0008c4 cdcf09                              call    $09cf                           ;[09c4] cd cf 09
  1410   0008c7 10fb                                djnz    $09c4                           ;[09c7] 10 fb
  1411   0008c9 0c                                  inc     c                               ;[09c9] 0c
  1412   0008ca 7c                                  ld      a,h                             ;[09ca] 7c
  1413   0008cb b9                                  cp      c                               ;[09cb] b9
  1414   0008cc 30e1                                jr      nc,$09af                        ;[09cc] 30 e1
  1415   0008ce c9                                  ret                                     ;[09ce] c9
  1416                          
  1417   0008cf 1c                                  inc     e                               ;[09cf] 1c
  1418   0008d0 7b                                  ld      a,e                             ;[09d0] 7b
  1419   0008d1 bc                                  cp      h                               ;[09d1] bc
  1420   0008d2 d8                                  ret     c                               ;[09d2] d8
  1421   0008d3 1e00                                ld      e,$00                           ;[09d3] 1e 00
  1422   0008d5 c9                                  ret                                     ;[09d5] c9
  1423                          
  1424   0008d6 2600                                ld      h,$00                           ;[09d6] 26 00
  1425   0008d8 00                                  nop                                     ;[09d8] 00
  1426   0008d9 00                                  nop                                     ;[09d9] 00
  1427   0008da 00                                  nop                                     ;[09da] 00
  1428   0008db 00                                  nop                                     ;[09db] 00
  1429   0008dc 00                                  nop                                     ;[09dc] 00
  1430   0008dd 00                                  nop                                     ;[09dd] 00
  1431   0008de 00                                  nop                                     ;[09de] 00
  1432   0008df 00                                  nop                                     ;[09df] 00
  1433   0008e0 00                                  nop                                     ;[09e0] 00
  1434   0008e1 00                                  nop                                     ;[09e1] 00
  1435   0008e2 00                                  nop                                     ;[09e2] 00
  1436   0008e3 00                                  nop                                     ;[09e3] 00
  1437   0008e4 00                                  nop                                     ;[09e4] 00
  1438   0008e5 00                                  nop                                     ;[09e5] 00
  1439   0008e6 00                                  nop                                     ;[09e6] 00
  1440   0008e7 00                                  nop                                     ;[09e7] 00
  1441   0008e8 00                                  nop                                     ;[09e8] 00
  1442   0008e9 00                                  nop                                     ;[09e9] 00
  1443   0008ea 00                                  nop                                     ;[09ea] 00
  1444   0008eb 00                                  nop                                     ;[09eb] 00
  1445   0008ec 00                                  nop                                     ;[09ec] 00
  1446   0008ed 00                                  nop                                     ;[09ed] 00
  1447   0008ee 00                                  nop                                     ;[09ee] 00
  1448   0008ef 00                                  nop                                     ;[09ef] 00
  1449   0008f0 00                                  nop                                     ;[09f0] 00
  1450   0008f1 00                                  nop                                     ;[09f1] 00
  1451   0008f2 00                                  nop                                     ;[09f2] 00
  1452   0008f3 00                                  nop                                     ;[09f3] 00
  1453   0008f4 00                                  nop                                     ;[09f4] 00
  1454   0008f5 00                                  nop                                     ;[09f5] 00
  1455   0008f6 00                                  nop                                     ;[09f6] 00
  1456   0008f7 00                                  nop                                     ;[09f7] 00
  1457   0008f8 00                                  nop                                     ;[09f8] 00
  1458   0008f9 00                                  nop                                     ;[09f9] 00
  1459   0008fa 00                                  nop                                     ;[09fa] 00
  1460   0008fb 00                                  nop                                     ;[09fb] 00
  1461   0008fc 00                                  nop                                     ;[09fc] 00
  1462   0008fd 00                                  nop                                     ;[09fd] 00
  1463   0008fe 00                                  nop                                     ;[09fe] 00
  1464   0008ff 00                                  nop                                     ;[09ff] 00
  1465   000900 00                                  nop                                     ;[0a00] 00
  1466   000901 00                                  nop                                     ;[0a01] 00
  1467   000902 00                                  nop                                     ;[0a02] 00
  1468   000903 00                                  nop                                     ;[0a03] 00
  1469   000904 00                                  nop                                     ;[0a04] 00
  1470   000905 00                                  nop                                     ;[0a05] 00
  1471   000906 00                                  nop                                     ;[0a06] 00
  1472   000907 00                                  nop                                     ;[0a07] 00
  1473   000908 00                                  nop                                     ;[0a08] 00
  1474   000909 00                                  nop                                     ;[0a09] 00
  1475   00090a 00                                  nop                                     ;[0a0a] 00
  1476   00090b 00                                  nop                                     ;[0a0b] 00
  1477   00090c 00                                  nop                                     ;[0a0c] 00
  1478   00090d 00                                  nop                                     ;[0a0d] 00
  1479   00090e 00                                  nop                                     ;[0a0e] 00
  1480   00090f 00                                  nop                                     ;[0a0f] 00
  1481   000910 00                                  nop                                     ;[0a10] 00
  1482   000911 00                                  nop                                     ;[0a11] 00
  1483   000912 00                                  nop                                     ;[0a12] 00
  1484   000913 00                                  nop                                     ;[0a13] 00
  1485   000914 00                                  nop                                     ;[0a14] 00
  1486   000915 00                                  nop                                     ;[0a15] 00
  1487   000916 00                                  nop                                     ;[0a16] 00
  1488   000917 00                                  nop                                     ;[0a17] 00
  1489   000918 00                                  nop                                     ;[0a18] 00
  1490   000919 00                                  nop                                     ;[0a19] 00
  1491   00091a 00                                  nop                                     ;[0a1a] 00
  1492   00091b 00                                  nop                                     ;[0a1b] 00
  1493   00091c 00                                  nop                                     ;[0a1c] 00
  1494   00091d 00                                  nop                                     ;[0a1d] 00
  1495   00091e 00                                  nop                                     ;[0a1e] 00
  1496   00091f 00                                  nop                                     ;[0a1f] 00
  1497   000920 00                                  nop                                     ;[0a20] 00
  1498   000921 00                                  nop                                     ;[0a21] 00
  1499   000922 00                                  nop                                     ;[0a22] 00
  1500   000923 00                                  nop                                     ;[0a23] 00
  1501   000924 00                                  nop                                     ;[0a24] 00
  1502   000925 00                                  nop                                     ;[0a25] 00
  1503   000926 00                                  nop                                     ;[0a26] 00
  1504   000927 00                                  nop                                     ;[0a27] 00
  1505   000928 00                                  nop                                     ;[0a28] 00
  1506   000929 00                                  nop                                     ;[0a29] 00
  1507   00092a 00                                  nop                                     ;[0a2a] 00
  1508   00092b 00                                  nop                                     ;[0a2b] 00
  1509   00092c 00                                  nop                                     ;[0a2c] 00
  1510   00092d 00                                  nop                                     ;[0a2d] 00
  1511   00092e 00                                  nop                                     ;[0a2e] 00
  1512   00092f 00                                  nop                                     ;[0a2f] 00
  1513   000930 00                                  nop                                     ;[0a30] 00
  1514   000931 00                                  nop                                     ;[0a31] 00
  1515   000932 00                                  nop                                     ;[0a32] 00
  1516   000933 00                                  nop                                     ;[0a33] 00
  1517   000934 00                                  nop                                     ;[0a34] 00
  1518   000935 00                                  nop                                     ;[0a35] 00
  1519   000936 00                                  nop                                     ;[0a36] 00
  1520   000937 00                                  nop                                     ;[0a37] 00
  1521   000938 00                                  nop                                     ;[0a38] 00
  1522   000939 00                                  nop                                     ;[0a39] 00
  1523   00093a 00                                  nop                                     ;[0a3a] 00
  1524   00093b 00                                  nop                                     ;[0a3b] 00
  1525   00093c 00                                  nop                                     ;[0a3c] 00
  1526   00093d 00                                  nop                                     ;[0a3d] 00
  1527   00093e 00                                  nop                                     ;[0a3e] 00
  1528   00093f 00                                  nop                                     ;[0a3f] 00
  1529   000940 00                                  nop                                     ;[0a40] 00
  1530   000941 00                                  nop                                     ;[0a41] 00
  1531   000942 00                                  nop                                     ;[0a42] 00
  1532   000943 00                                  nop                                     ;[0a43] 00
  1533   000944 00                                  nop                                     ;[0a44] 00
  1534   000945 00                                  nop                                     ;[0a45] 00
  1535   000946 00                                  nop                                     ;[0a46] 00
  1536   000947 00                                  nop                                     ;[0a47] 00
  1537   000948 00                                  nop                                     ;[0a48] 00
  1538   000949 00                                  nop                                     ;[0a49] 00
  1539   00094a 00                                  nop                                     ;[0a4a] 00
  1540   00094b 00                                  nop                                     ;[0a4b] 00
  1541   00094c 00                                  nop                                     ;[0a4c] 00
  1542   00094d 00                                  nop                                     ;[0a4d] 00
  1543   00094e 00                                  nop                                     ;[0a4e] 00
  1544   00094f 00                                  nop                                     ;[0a4f] 00
  1545   000950 00                                  nop                                     ;[0a50] 00
  1546   000951 00                                  nop                                     ;[0a51] 00
  1547   000952 00                                  nop                                     ;[0a52] 00
  1548   000953 00                                  nop                                     ;[0a53] 00
  1549   000954 00                                  nop                                     ;[0a54] 00
  1550   000955 00                                  nop                                     ;[0a55] 00
  1551   000956 00                                  nop                                     ;[0a56] 00
  1552   000957 00                                  nop                                     ;[0a57] 00
  1553   000958 00                                  nop                                     ;[0a58] 00
  1554   000959 00                                  nop                                     ;[0a59] 00
  1555   00095a 00                                  nop                                     ;[0a5a] 00
  1556   00095b 00                                  nop                                     ;[0a5b] 00
  1557   00095c 00                                  nop                                     ;[0a5c] 00
  1558   00095d 00                                  nop                                     ;[0a5d] 00
  1559   00095e 00                                  nop                                     ;[0a5e] 00
  1560   00095f 00                                  nop                                     ;[0a5f] 00
  1561   000960 00                                  nop                                     ;[0a60] 00
  1562   000961 00                                  nop                                     ;[0a61] 00
  1563   000962 00                                  nop                                     ;[0a62] 00
  1564   000963 00                                  nop                                     ;[0a63] 00
  1565   000964 00                                  nop                                     ;[0a64] 00
  1566   000965 00                                  nop                                     ;[0a65] 00
  1567   000966 00                                  nop                                     ;[0a66] 00
  1568   000967 00                                  nop                                     ;[0a67] 00
  1569   000968 00                                  nop                                     ;[0a68] 00
  1570   000969 00                                  nop                                     ;[0a69] 00
  1571   00096a 00                                  nop                                     ;[0a6a] 00
  1572   00096b 00                                  nop                                     ;[0a6b] 00
  1573   00096c 00                                  nop                                     ;[0a6c] 00
  1574   00096d 00                                  nop                                     ;[0a6d] 00
  1575   00096e 00                                  nop                                     ;[0a6e] 00
  1576   00096f 00                                  nop                                     ;[0a6f] 00
  1577   000970 00                                  nop                                     ;[0a70] 00
  1578   000971 00                                  nop                                     ;[0a71] 00
  1579   000972 00                                  nop                                     ;[0a72] 00
  1580   000973 00                                  nop                                     ;[0a73] 00
  1581   000974 00                                  nop                                     ;[0a74] 00
  1582   000975 00                                  nop                                     ;[0a75] 00
  1583   000976 00                                  nop                                     ;[0a76] 00
  1584   000977 00                                  nop                                     ;[0a77] 00
  1585   000978 00                                  nop                                     ;[0a78] 00
  1586   000979 00                                  nop                                     ;[0a79] 00
  1587   00097a 00                                  nop                                     ;[0a7a] 00
  1588   00097b 00                                  nop                                     ;[0a7b] 00
  1589   00097c 00                                  nop                                     ;[0a7c] 00
  1590   00097d 00                                  nop                                     ;[0a7d] 00
  1591   00097e 00                                  nop                                     ;[0a7e] 00
  1592   00097f 00                                  nop                                     ;[0a7f] 00
  1593   000980 00                                  nop                                     ;[0a80] 00
  1594   000981 00                                  nop                                     ;[0a81] 00
  1595   000982 00                                  nop                                     ;[0a82] 00
  1596   000983 00                                  nop                                     ;[0a83] 00
  1597   000984 00                                  nop                                     ;[0a84] 00
  1598   000985 00                                  nop                                     ;[0a85] 00
  1599   000986 00                                  nop                                     ;[0a86] 00
  1600   000987 00                                  nop                                     ;[0a87] 00
  1601   000988 00                                  nop                                     ;[0a88] 00
  1602   000989 00                                  nop                                     ;[0a89] 00
  1603   00098a 00                                  nop                                     ;[0a8a] 00
  1604   00098b 00                                  nop                                     ;[0a8b] 00
  1605   00098c 00                                  nop                                     ;[0a8c] 00
  1606   00098d 00                                  nop                                     ;[0a8d] 00
  1607   00098e 00                                  nop                                     ;[0a8e] 00
  1608   00098f 00                                  nop                                     ;[0a8f] 00
  1609   000990 00                                  nop                                     ;[0a90] 00
  1610   000991 00                                  nop                                     ;[0a91] 00
  1611   000992 00                                  nop                                     ;[0a92] 00
  1612   000993 00                                  nop                                     ;[0a93] 00
  1613   000994 00                                  nop                                     ;[0a94] 00
  1614   000995 00                                  nop                                     ;[0a95] 00
  1615   000996 00                                  nop                                     ;[0a96] 00
  1616   000997 00                                  nop                                     ;[0a97] 00
  1617   000998 00                                  nop                                     ;[0a98] 00
  1618   000999 00                                  nop                                     ;[0a99] 00
  1619   00099a 00                                  nop                                     ;[0a9a] 00
  1620   00099b 00                                  nop                                     ;[0a9b] 00
  1621   00099c 00                                  nop                                     ;[0a9c] 00
  1622   00099d 00                                  nop                                     ;[0a9d] 00
  1623   00099e 00                                  nop                                     ;[0a9e] 00
  1624   00099f 00                                  nop                                     ;[0a9f] 00
  1625   0009a0 00                                  nop                                     ;[0aa0] 00
  1626   0009a1 00                                  nop                                     ;[0aa1] 00
  1627   0009a2 00                                  nop                                     ;[0aa2] 00
  1628   0009a3 00                                  nop                                     ;[0aa3] 00
  1629   0009a4 00                                  nop                                     ;[0aa4] 00
  1630   0009a5 00                                  nop                                     ;[0aa5] 00
  1631   0009a6 00                                  nop                                     ;[0aa6] 00
  1632   0009a7 00                                  nop                                     ;[0aa7] 00
  1633   0009a8 00                                  nop                                     ;[0aa8] 00
  1634   0009a9 00                                  nop                                     ;[0aa9] 00
  1635   0009aa 00                                  nop                                     ;[0aaa] 00
  1636   0009ab 00                                  nop                                     ;[0aab] 00
  1637   0009ac 00                                  nop                                     ;[0aac] 00
  1638   0009ad 00                                  nop                                     ;[0aad] 00
  1639   0009ae 00                                  nop                                     ;[0aae] 00
  1640   0009af 00                                  nop                                     ;[0aaf] 00
  1641   0009b0 00                                  nop                                     ;[0ab0] 00
  1642   0009b1 00                                  nop                                     ;[0ab1] 00
  1643   0009b2 00                                  nop                                     ;[0ab2] 00
  1644   0009b3 00                                  nop                                     ;[0ab3] 00
  1645   0009b4 00                                  nop                                     ;[0ab4] 00
  1646   0009b5 00                                  nop                                     ;[0ab5] 00
  1647   0009b6 00                                  nop                                     ;[0ab6] 00
  1648   0009b7 00                                  nop                                     ;[0ab7] 00
  1649   0009b8 00                                  nop                                     ;[0ab8] 00
  1650   0009b9 00                                  nop                                     ;[0ab9] 00
  1651   0009ba 00                                  nop                                     ;[0aba] 00
  1652   0009bb 00                                  nop                                     ;[0abb] 00
  1653   0009bc 00                                  nop                                     ;[0abc] 00
  1654   0009bd 00                                  nop                                     ;[0abd] 00
  1655   0009be 00                                  nop                                     ;[0abe] 00
  1656   0009bf 00                                  nop                                     ;[0abf] 00
  1657   0009c0 00                                  nop                                     ;[0ac0] 00
  1658   0009c1 00                                  nop                                     ;[0ac1] 00
  1659   0009c2 00                                  nop                                     ;[0ac2] 00
  1660   0009c3 00                                  nop                                     ;[0ac3] 00
  1661   0009c4 00                                  nop                                     ;[0ac4] 00
  1662   0009c5 00                                  nop                                     ;[0ac5] 00
  1663   0009c6 00                                  nop                                     ;[0ac6] 00
  1664   0009c7 00                                  nop                                     ;[0ac7] 00
  1665   0009c8 00                                  nop                                     ;[0ac8] 00
  1666   0009c9 00                                  nop                                     ;[0ac9] 00
  1667   0009ca 00                                  nop                                     ;[0aca] 00
  1668   0009cb 00                                  nop                                     ;[0acb] 00
  1669   0009cc 00                                  nop                                     ;[0acc] 00
  1670   0009cd 00                                  nop                                     ;[0acd] 00
  1671   0009ce 00                                  nop                                     ;[0ace] 00
  1672   0009cf 00                                  nop                                     ;[0acf] 00
  1673   0009d0 00                                  nop                                     ;[0ad0] 00
  1674   0009d1 00                                  nop                                     ;[0ad1] 00
  1675   0009d2 00                                  nop                                     ;[0ad2] 00
  1676   0009d3 00                                  nop                                     ;[0ad3] 00
  1677   0009d4 00                                  nop                                     ;[0ad4] 00
  1678   0009d5 00                                  nop                                     ;[0ad5] 00
  1679   0009d6 04                                  inc     b                               ;[0ad6] 04
  1680   0009d7 28ff                                jr      z,$0ad8                         ;[0ad7] 28 ff
  1681   0009d9 0600                                ld      b,$00                           ;[0ad9] 06 00
  1682   0009db 01fc1a                              ld      bc,$1afc                        ;[0adb] 01 fc 1a
  1683   0009de ff                                  rst     $38                             ;[0ade] ff
  1684   0009df 0b                                  dec     bc                              ;[0adf] 0b
  1685   0009e0 03                                  inc     bc                              ;[0ae0] 03
  1686   0009e1 00                                  nop                                     ;[0ae1] 00
  1687   0009e2 03                                  inc     bc                              ;[0ae2] 03
  1688   0009e3 00                                  nop                                     ;[0ae3] 00
  1689   0009e4 01fe01                              ld      bc,$01fe                        ;[0ae4] 01 fe 01
  1690   0009e7 00                                  nop                                     ;[0ae7] 00
  1691   0009e8 010001                              ld      bc,$0100                        ;[0ae8] 01 00 01
  1692   0009eb 00                                  nop                                     ;[0aeb] 00
  1693   0009ec 010001                              ld      bc,$0100                        ;[0aec] 01 00 01
  1694   0009ef f7                                  rst     $30                             ;[0aef] f7
  1695   0009f0 0b                                  dec     bc                              ;[0af0] 0b
  1696   0009f1 ff                                  rst     $38                             ;[0af1] ff
  1697   0009f2 0600                                ld      b,$00                           ;[0af2] 06 00
  1698   0009f4 01fb02                              ld      bc,$02fb                        ;[0af4] 01 fb 02
  1699   0009f7 01f71b                              ld      bc,$1bf7                        ;[0af7] 01 f7 1b
  1700   0009fa ff                                  rst     $38                             ;[0afa] ff
  1701   0009fb 05                                  dec     b                               ;[0afb] 05
  1702   0009fc 50                                  ld      d,b                             ;[0afc] 50
  1703   0009fd 4e                                  ld      c,(hl)                          ;[0afd] 4e
  1704   0009fe 0c                                  inc     c                               ;[0afe] 0c
  1705   0009ff 00                                  nop                                     ;[0aff] 00
  1706   000a00 03                                  inc     bc                              ;[0b00] 03
  1707   000a01 f601                                or      $01                             ;[0b01] f6 01
  1708   000a03 fc324e                              call    m,$4e32                         ;[0b03] fc 32 4e
  1709   000a06 0c                                  inc     c                               ;[0b06] 0c
  1710   000a07 0c                                  inc     c                               ;[0b07] 0c
  1711   000a08 00                                  nop                                     ;[0b08] 00
  1712   000a09 03                                  inc     bc                              ;[0b09] 03
  1713   000a0a f5                                  push    af                              ;[0b0a] f5
  1714   000a0b 01fe01                              ld      bc,$01fe                        ;[0b0b] 01 fe 01
  1715   000a0e 00                                  nop                                     ;[0b0e] 00
  1716   000a0f 010001                              ld      bc,$0100                        ;[0b0f] 01 00 01
  1717   000a12 00                                  nop                                     ;[0b12] 00
  1718   000a13 010101                              ld      bc,$0101                        ;[0b13] 01 01 01
  1719   000a16 f7                                  rst     $30                             ;[0b16] f7
  1720   000a17 164e                                ld      d,$4e                           ;[0b17] 16 4e
  1721   000a19 0c                                  inc     c                               ;[0b19] 0c
  1722   000a1a 00                                  nop                                     ;[0b1a] 00
  1723   000a1b 03                                  inc     bc                              ;[0b1b] 03
  1724   000a1c f5                                  push    af                              ;[0b1c] f5
  1725   000a1d 01fb02                              ld      bc,$02fb                        ;[0b1d] 01 fb 02
  1726   000a20 01f735                              ld      bc,$35f7                        ;[0b20] 01 f7 35
  1727   000a23 4e                                  ld      c,(hl)                          ;[0b23] 4e
  1728   000a24 01324e                              ld      bc,$4e32                        ;[0b24] 01 32 4e
  1729   000a27 0c                                  inc     c                               ;[0b27] 0c
  1730   000a28 0c                                  inc     c                               ;[0b28] 0c
  1731   000a29 00                                  nop                                     ;[0b29] 00
  1732   000a2a 03                                  inc     bc                              ;[0b2a] 03
  1733   000a2b f5                                  push    af                              ;[0b2b] f5
  1734   000a2c 01fe01                              ld      bc,$01fe                        ;[0b2c] 01 fe 01
  1735   000a2f 00                                  nop                                     ;[0b2f] 00
  1736   000a30 010001                              ld      bc,$0100                        ;[0b30] 01 00 01
  1737   000a33 00                                  nop                                     ;[0b33] 00
  1738   000a34 010201                              ld      bc,$0102                        ;[0b34] 01 02 01
  1739   000a37 f7                                  rst     $30                             ;[0b37] f7
  1740   000a38 164e                                ld      d,$4e                           ;[0b38] 16 4e
  1741   000a3a 0c                                  inc     c                               ;[0b3a] 0c
  1742   000a3b 00                                  nop                                     ;[0b3b] 00
  1743   000a3c 03                                  inc     bc                              ;[0b3c] 03
  1744   000a3d f5                                  push    af                              ;[0b3d] f5
  1745   000a3e 01fb02                              ld      bc,$02fb                        ;[0b3e] 01 fb 02
  1746   000a41 01f735                              ld      bc,$35f7                        ;[0b41] 01 f7 35
  1747   000a44 4e                                  ld      c,(hl)                          ;[0b44] 4e
  1748   000a45 01324e                              ld      bc,$4e32                        ;[0b45] 01 32 4e
  1749   000a48 0c                                  inc     c                               ;[0b48] 0c
  1750   000a49 0c                                  inc     c                               ;[0b49] 0c
  1751   000a4a 00                                  nop                                     ;[0b4a] 00
  1752   000a4b 03                                  inc     bc                              ;[0b4b] 03
  1753   000a4c f5                                  push    af                              ;[0b4c] f5
  1754   000a4d 01fe01                              ld      bc,$01fe                        ;[0b4d] 01 fe 01
  1755   000a50 00                                  nop                                     ;[0b50] 00
  1756   000a51 010001                              ld      bc,$0100                        ;[0b51] 01 00 01
  1757   000a54 00                                  nop                                     ;[0b54] 00
  1758   000a55 010301                              ld      bc,$0103                        ;[0b55] 01 03 01
  1759   000a58 f7                                  rst     $30                             ;[0b58] f7
  1760   000a59 164e                                ld      d,$4e                           ;[0b59] 16 4e
  1761   000a5b 0c                                  inc     c                               ;[0b5b] 0c
  1762   000a5c 00                                  nop                                     ;[0b5c] 00
  1763   000a5d 03                                  inc     bc                              ;[0b5d] 03
  1764   000a5e f5                                  push    af                              ;[0b5e] f5
  1765   000a5f 01fb02                              ld      bc,$02fb                        ;[0b5f] 01 fb 02
  1766   000a62 01f728                              ld      bc,$28f7                        ;[0b62] 01 f7 28
  1767   000a65 4e                                  ld      c,(hl)                          ;[0b65] 4e
  1768   000a66 0110ff                              ld      bc,$ff10                        ;[0b66] 01 10 ff
  1769   000a69 0b                                  dec     bc                              ;[0b69] 0b
  1770   000a6a 03                                  inc     bc                              ;[0b6a] 03
  1771   000a6b 00                                  nop                                     ;[0b6b] 00
  1772   000a6c 03                                  inc     bc                              ;[0b6c] 03
  1773   000a6d 00                                  nop                                     ;[0b6d] 00
  1774   000a6e 01fe01                              ld      bc,$01fe                        ;[0b6e] 01 fe 01
  1775   000a71 00                                  nop                                     ;[0b71] 00
  1776   000a72 010001                              ld      bc,$0100                        ;[0b72] 01 00 01
  1777   000a75 00                                  nop                                     ;[0b75] 00
  1778   000a76 010001                              ld      bc,$0100                        ;[0b76] 01 00 01
  1779   000a79 f7                                  rst     $30                             ;[0b79] f7
  1780   000a7a 0b                                  dec     bc                              ;[0b7a] 0b
  1781   000a7b ff                                  rst     $38                             ;[0b7b] ff
  1782   000a7c 0600                                ld      b,$00                           ;[0b7c] 06 00
  1783   000a7e 01fb02                              ld      bc,$02fb                        ;[0b7e] 01 fb 02
  1784   000a81 01f708                              ld      bc,$08f7                        ;[0b81] 01 f7 08
  1785   000a84 ff                                  rst     $38                             ;[0b84] ff
  1786   000a85 01204e                              ld      bc,$4e20                        ;[0b85] 01 20 4e
  1787   000a88 0c                                  inc     c                               ;[0b88] 0c
  1788   000a89 0c                                  inc     c                               ;[0b89] 0c
  1789   000a8a 00                                  nop                                     ;[0b8a] 00
  1790   000a8b 03                                  inc     bc                              ;[0b8b] 03
  1791   000a8c f5                                  push    af                              ;[0b8c] f5
  1792   000a8d 01fe01                              ld      bc,$01fe                        ;[0b8d] 01 fe 01
  1793   000a90 00                                  nop                                     ;[0b90] 00
  1794   000a91 010001                              ld      bc,$0100                        ;[0b91] 01 00 01
  1795   000a94 00                                  nop                                     ;[0b94] 00
  1796   000a95 010101                              ld      bc,$0101                        ;[0b95] 01 01 01
  1797   000a98 f7                                  rst     $30                             ;[0b98] f7
  1798   000a99 164e                                ld      d,$4e                           ;[0b99] 16 4e
  1799   000a9b 0c                                  inc     c                               ;[0b9b] 0c
  1800   000a9c 00                                  nop                                     ;[0b9c] 00
  1801   000a9d 03                                  inc     bc                              ;[0b9d] 03
  1802   000a9e f5                                  push    af                              ;[0b9e] f5
  1803   000a9f 01fb02                              ld      bc,$02fb                        ;[0b9f] 01 fb 02
  1804   000aa2 01f710                              ld      bc,$10f7                        ;[0ba2] 01 f7 10
  1805   000aa5 4e                                  ld      c,(hl)                          ;[0ba5] 4e
  1806   000aa6 01204e                              ld      bc,$4e20                        ;[0ba6] 01 20 4e
  1807   000aa9 0c                                  inc     c                               ;[0ba9] 0c
  1808   000aaa 0c                                  inc     c                               ;[0baa] 0c
  1809   000aab 00                                  nop                                     ;[0bab] 00
  1810   000aac 03                                  inc     bc                              ;[0bac] 03
  1811   000aad f5                                  push    af                              ;[0bad] f5
  1812   000aae 01fe01                              ld      bc,$01fe                        ;[0bae] 01 fe 01
  1813   000ab1 00                                  nop                                     ;[0bb1] 00
  1814   000ab2 010001                              ld      bc,$0100                        ;[0bb2] 01 00 01
  1815   000ab5 00                                  nop                                     ;[0bb5] 00
  1816   000ab6 010201                              ld      bc,$0102                        ;[0bb6] 01 02 01
  1817   000ab9 f7                                  rst     $30                             ;[0bb9] f7
  1818   000aba 164e                                ld      d,$4e                           ;[0bba] 16 4e
  1819   000abc 0c                                  inc     c                               ;[0bbc] 0c
  1820   000abd 00                                  nop                                     ;[0bbd] 00
  1821   000abe 03                                  inc     bc                              ;[0bbe] 03
  1822   000abf f5                                  push    af                              ;[0bbf] f5
  1823   000ac0 01fb02                              ld      bc,$02fb                        ;[0bc0] 01 fb 02
  1824   000ac3 01f718                              ld      bc,$18f7                        ;[0bc3] 01 f7 18
  1825   000ac6 4e                                  ld      c,(hl)                          ;[0bc6] 4e
  1826   000ac7 01204e                              ld      bc,$4e20                        ;[0bc7] 01 20 4e
  1827   000aca 0c                                  inc     c                               ;[0bca] 0c
  1828   000acb 0c                                  inc     c                               ;[0bcb] 0c
  1829   000acc 00                                  nop                                     ;[0bcc] 00
  1830   000acd 03                                  inc     bc                              ;[0bcd] 03
  1831   000ace f5                                  push    af                              ;[0bce] f5
  1832   000acf 01fe01                              ld      bc,$01fe                        ;[0bcf] 01 fe 01
  1833   000ad2 00                                  nop                                     ;[0bd2] 00
  1834   000ad3 010001                              ld      bc,$0100                        ;[0bd3] 01 00 01
  1835   000ad6 00                                  nop                                     ;[0bd6] 00
  1836   000ad7 010301                              ld      bc,$0103                        ;[0bd7] 01 03 01
  1837   000ada f7                                  rst     $30                             ;[0bda] f7
  1838   000adb 164e                                ld      d,$4e                           ;[0bdb] 16 4e
  1839   000add 0c                                  inc     c                               ;[0bdd] 0c
  1840   000ade 00                                  nop                                     ;[0bde] 00
  1841   000adf 03                                  inc     bc                              ;[0bdf] 03
  1842   000ae0 f5                                  push    af                              ;[0be0] f5
  1843   000ae1 01fb02                              ld      bc,$02fb                        ;[0be1] 01 fb 02
  1844   000ae4 01f750                              ld      bc,$50f7                        ;[0be4] 01 f7 50
  1845   000ae7 4e                                  ld      c,(hl)                          ;[0be7] 4e
  1846   000ae8 00                                  nop                                     ;[0be8] 00
  1847   000ae9 00                                  nop                                     ;[0be9] 00
  1848   000aea 00                                  nop                                     ;[0bea] 00
  1849   000aeb 00                                  nop                                     ;[0beb] 00
  1850   000aec 00                                  nop                                     ;[0bec] 00
  1851   000aed 00                                  nop                                     ;[0bed] 00
  1852   000aee 00                                  nop                                     ;[0bee] 00
  1853   000aef 00                                  nop                                     ;[0bef] 00
  1854   000af0 00                                  nop                                     ;[0bf0] 00
  1855   000af1 00                                  nop                                     ;[0bf1] 00
  1856   000af2 00                                  nop                                     ;[0bf2] 00
  1857   000af3 00                                  nop                                     ;[0bf3] 00
  1858   000af4 00                                  nop                                     ;[0bf4] 00
  1859   000af5 00                                  nop                                     ;[0bf5] 00
  1860   000af6 00                                  nop                                     ;[0bf6] 00
  1861   000af7 00                                  nop                                     ;[0bf7] 00
  1862   000af8 00                                  nop                                     ;[0bf8] 00
  1863   000af9 00                                  nop                                     ;[0bf9] 00
  1864   000afa 00                                  nop                                     ;[0bfa] 00
  1865   000afb 00                                  nop                                     ;[0bfb] 00
  1866   000afc 00                                  nop                                     ;[0bfc] 00
  1867   000afd 00                                  nop                                     ;[0bfd] 00
  1868   000afe 00                                  nop                                     ;[0bfe] 00
  1869   000aff 00                                  nop                                     ;[0bff] 00
  1870   000b00 00                                  nop                                     ;[0c00] 00
  1871   000b01 00                                  nop                                     ;[0c01] 00
  1872   000b02 00                                  nop                                     ;[0c02] 00
  1873   000b03 00                                  nop                                     ;[0c03] 00
  1874   000b04 00                                  nop                                     ;[0c04] 00
  1875   000b05 00                                  nop                                     ;[0c05] 00
  1876   000b06 00                                  nop                                     ;[0c06] 00
  1877   000b07 00                                  nop                                     ;[0c07] 00
  1878   000b08 00                                  nop                                     ;[0c08] 00
  1879   000b09 00                                  nop                                     ;[0c09] 00
  1880   000b0a 00                                  nop                                     ;[0c0a] 00
  1881   000b0b 00                                  nop                                     ;[0c0b] 00
  1882   000b0c 00                                  nop                                     ;[0c0c] 00
  1883   000b0d 00                                  nop                                     ;[0c0d] 00
  1884   000b0e 00                                  nop                                     ;[0c0e] 00
  1885   000b0f 00                                  nop                                     ;[0c0f] 00
  1886   000b10 00                                  nop                                     ;[0c10] 00
  1887   000b11 00                                  nop                                     ;[0c11] 00
  1888   000b12 00                                  nop                                     ;[0c12] 00
  1889   000b13 00                                  nop                                     ;[0c13] 00
  1890   000b14 00                                  nop                                     ;[0c14] 00
  1891   000b15 00                                  nop                                     ;[0c15] 00
  1892   000b16 00                                  nop                                     ;[0c16] 00
  1893   000b17 00                                  nop                                     ;[0c17] 00
  1894   000b18 00                                  nop                                     ;[0c18] 00
  1895   000b19 00                                  nop                                     ;[0c19] 00
  1896   000b1a 00                                  nop                                     ;[0c1a] 00
  1897   000b1b 00                                  nop                                     ;[0c1b] 00
  1898   000b1c 00                                  nop                                     ;[0c1c] 00
  1899   000b1d 00                                  nop                                     ;[0c1d] 00
  1900   000b1e 00                                  nop                                     ;[0c1e] 00
  1901   000b1f 00                                  nop                                     ;[0c1f] 00
  1902   000b20 00                                  nop                                     ;[0c20] 00
  1903   000b21 00                                  nop                                     ;[0c21] 00
  1904   000b22 00                                  nop                                     ;[0c22] 00
  1905   000b23 00                                  nop                                     ;[0c23] 00
  1906   000b24 00                                  nop                                     ;[0c24] 00
  1907   000b25 00                                  nop                                     ;[0c25] 00
  1908   000b26 00                                  nop                                     ;[0c26] 00
  1909   000b27 00                                  nop                                     ;[0c27] 00
  1910   000b28 00                                  nop                                     ;[0c28] 00
  1911   000b29 00                                  nop                                     ;[0c29] 00
  1912   000b2a 00                                  nop                                     ;[0c2a] 00
  1913   000b2b 00                                  nop                                     ;[0c2b] 00
  1914   000b2c 00                                  nop                                     ;[0c2c] 00
  1915   000b2d 00                                  nop                                     ;[0c2d] 00
  1916   000b2e 00                                  nop                                     ;[0c2e] 00
  1917   000b2f 00                                  nop                                     ;[0c2f] 00
  1918   000b30 00                                  nop                                     ;[0c30] 00
  1919   000b31 00                                  nop                                     ;[0c31] 00
  1920   000b32 00                                  nop                                     ;[0c32] 00
  1921   000b33 00                                  nop                                     ;[0c33] 00
  1922   000b34 00                                  nop                                     ;[0c34] 00
  1923   000b35 00                                  nop                                     ;[0c35] 00
  1924   000b36 00                                  nop                                     ;[0c36] 00
  1925   000b37 00                                  nop                                     ;[0c37] 00
  1926   000b38 00                                  nop                                     ;[0c38] 00
  1927   000b39 00                                  nop                                     ;[0c39] 00
  1928   000b3a 00                                  nop                                     ;[0c3a] 00
  1929   000b3b 00                                  nop                                     ;[0c3b] 00
  1930   000b3c 00                                  nop                                     ;[0c3c] 00
  1931   000b3d 00                                  nop                                     ;[0c3d] 00
  1932   000b3e 00                                  nop                                     ;[0c3e] 00
  1933   000b3f 00                                  nop                                     ;[0c3f] 00
  1934   000b40 00                                  nop                                     ;[0c40] 00
  1935   000b41 00                                  nop                                     ;[0c41] 00
  1936   000b42 00                                  nop                                     ;[0c42] 00
  1937   000b43 00                                  nop                                     ;[0c43] 00
  1938   000b44 00                                  nop                                     ;[0c44] 00
  1939   000b45 00                                  nop                                     ;[0c45] 00
  1940   000b46 00                                  nop                                     ;[0c46] 00
  1941   000b47 00                                  nop                                     ;[0c47] 00
  1942   000b48 00                                  nop                                     ;[0c48] 00
  1943   000b49 00                                  nop                                     ;[0c49] 00
  1944   000b4a 00                                  nop                                     ;[0c4a] 00
  1945   000b4b 00                                  nop                                     ;[0c4b] 00
  1946   000b4c 00                                  nop                                     ;[0c4c] 00
  1947   000b4d 00                                  nop                                     ;[0c4d] 00
  1948   000b4e 00                                  nop                                     ;[0c4e] 00
  1949   000b4f 00                                  nop                                     ;[0c4f] 00
  1950   000b50 00                                  nop                                     ;[0c50] 00
  1951   000b51 00                                  nop                                     ;[0c51] 00
  1952   000b52 00                                  nop                                     ;[0c52] 00
  1953   000b53 00                                  nop                                     ;[0c53] 00
  1954   000b54 00                                  nop                                     ;[0c54] 00
  1955   000b55 00                                  nop                                     ;[0c55] 00
  1956   000b56 00                                  nop                                     ;[0c56] 00
  1957   000b57 00                                  nop                                     ;[0c57] 00
  1958   000b58 00                                  nop                                     ;[0c58] 00
  1959   000b59 00                                  nop                                     ;[0c59] 00
  1960   000b5a 00                                  nop                                     ;[0c5a] 00
  1961   000b5b 00                                  nop                                     ;[0c5b] 00
  1962   000b5c 00                                  nop                                     ;[0c5c] 00
  1963   000b5d 00                                  nop                                     ;[0c5d] 00
  1964   000b5e 00                                  nop                                     ;[0c5e] 00
  1965   000b5f 00                                  nop                                     ;[0c5f] 00
  1966   000b60 00                                  nop                                     ;[0c60] 00
  1967   000b61 00                                  nop                                     ;[0c61] 00
  1968   000b62 00                                  nop                                     ;[0c62] 00
  1969   000b63 00                                  nop                                     ;[0c63] 00
  1970   000b64 00                                  nop                                     ;[0c64] 00
  1971   000b65 00                                  nop                                     ;[0c65] 00
  1972   000b66 00                                  nop                                     ;[0c66] 00
  1973   000b67 00                                  nop                                     ;[0c67] 00
  1974   000b68 00                                  nop                                     ;[0c68] 00
  1975   000b69 00                                  nop                                     ;[0c69] 00
  1976   000b6a 00                                  nop                                     ;[0c6a] 00
  1977   000b6b 00                                  nop                                     ;[0c6b] 00
  1978   000b6c 00                                  nop                                     ;[0c6c] 00
  1979   000b6d 00                                  nop                                     ;[0c6d] 00
  1980   000b6e 00                                  nop                                     ;[0c6e] 00
  1981   000b6f 00                                  nop                                     ;[0c6f] 00
  1982   000b70 00                                  nop                                     ;[0c70] 00
  1983   000b71 00                                  nop                                     ;[0c71] 00
  1984   000b72 00                                  nop                                     ;[0c72] 00
  1985   000b73 00                                  nop                                     ;[0c73] 00
  1986   000b74 00                                  nop                                     ;[0c74] 00
  1987   000b75 00                                  nop                                     ;[0c75] 00
  1988   000b76 00                                  nop                                     ;[0c76] 00
  1989   000b77 00                                  nop                                     ;[0c77] 00
  1990   000b78 00                                  nop                                     ;[0c78] 00
  1991   000b79 00                                  nop                                     ;[0c79] 00
  1992   000b7a 00                                  nop                                     ;[0c7a] 00
  1993   000b7b 00                                  nop                                     ;[0c7b] 00
  1994   000b7c 00                                  nop                                     ;[0c7c] 00
  1995   000b7d 00                                  nop                                     ;[0c7d] 00
  1996   000b7e 00                                  nop                                     ;[0c7e] 00
  1997   000b7f 00                                  nop                                     ;[0c7f] 00
  1998   000b80 00                                  nop                                     ;[0c80] 00
  1999   000b81 00                                  nop                                     ;[0c81] 00
  2000   000b82 00                                  nop                                     ;[0c82] 00
  2001   000b83 00                                  nop                                     ;[0c83] 00
  2002   000b84 00                                  nop                                     ;[0c84] 00
  2003   000b85 00                                  nop                                     ;[0c85] 00
  2004   000b86 00                                  nop                                     ;[0c86] 00
  2005   000b87 00                                  nop                                     ;[0c87] 00
  2006   000b88 00                                  nop                                     ;[0c88] 00
  2007   000b89 00                                  nop                                     ;[0c89] 00
  2008   000b8a 00                                  nop                                     ;[0c8a] 00
  2009   000b8b 00                                  nop                                     ;[0c8b] 00
  2010   000b8c 00                                  nop                                     ;[0c8c] 00
  2011   000b8d 00                                  nop                                     ;[0c8d] 00
  2012   000b8e 00                                  nop                                     ;[0c8e] 00
  2013   000b8f 00                                  nop                                     ;[0c8f] 00
  2014   000b90 00                                  nop                                     ;[0c90] 00
  2015   000b91 00                                  nop                                     ;[0c91] 00
  2016   000b92 00                                  nop                                     ;[0c92] 00
  2017   000b93 00                                  nop                                     ;[0c93] 00
  2018   000b94 00                                  nop                                     ;[0c94] 00
  2019   000b95 00                                  nop                                     ;[0c95] 00
  2020   000b96 00                                  nop                                     ;[0c96] 00
  2021   000b97 00                                  nop                                     ;[0c97] 00
  2022   000b98 00                                  nop                                     ;[0c98] 00
  2023   000b99 00                                  nop                                     ;[0c99] 00
  2024   000b9a 00                                  nop                                     ;[0c9a] 00
  2025   000b9b 00                                  nop                                     ;[0c9b] 00
  2026   000b9c 00                                  nop                                     ;[0c9c] 00
  2027   000b9d 00                                  nop                                     ;[0c9d] 00
  2028   000b9e 00                                  nop                                     ;[0c9e] 00
  2029   000b9f 00                                  nop                                     ;[0c9f] 00
  2030   000ba0 00                                  nop                                     ;[0ca0] 00
  2031   000ba1 00                                  nop                                     ;[0ca1] 00
  2032   000ba2 00                                  nop                                     ;[0ca2] 00
  2033   000ba3 00                                  nop                                     ;[0ca3] 00
  2034   000ba4 00                                  nop                                     ;[0ca4] 00
  2035   000ba5 00                                  nop                                     ;[0ca5] 00
  2036   000ba6 00                                  nop                                     ;[0ca6] 00
  2037   000ba7 00                                  nop                                     ;[0ca7] 00
  2038   000ba8 00                                  nop                                     ;[0ca8] 00
  2039   000ba9 00                                  nop                                     ;[0ca9] 00
  2040   000baa 00                                  nop                                     ;[0caa] 00
  2041   000bab 00                                  nop                                     ;[0cab] 00
  2042   000bac 00                                  nop                                     ;[0cac] 00
  2043   000bad 00                                  nop                                     ;[0cad] 00
  2044   000bae 00                                  nop                                     ;[0cae] 00
  2045   000baf 00                                  nop                                     ;[0caf] 00
  2046   000bb0 00                                  nop                                     ;[0cb0] 00
  2047   000bb1 00                                  nop                                     ;[0cb1] 00
  2048   000bb2 00                                  nop                                     ;[0cb2] 00
  2049   000bb3 00                                  nop                                     ;[0cb3] 00
  2050   000bb4 00                                  nop                                     ;[0cb4] 00
  2051   000bb5 00                                  nop                                     ;[0cb5] 00
  2052   000bb6 00                                  nop                                     ;[0cb6] 00
  2053   000bb7 00                                  nop                                     ;[0cb7] 00
  2054   000bb8 00                                  nop                                     ;[0cb8] 00
  2055   000bb9 00                                  nop                                     ;[0cb9] 00
  2056   000bba 00                                  nop                                     ;[0cba] 00
  2057   000bbb 00                                  nop                                     ;[0cbb] 00
  2058   000bbc 00                                  nop                                     ;[0cbc] 00
  2059   000bbd 00                                  nop                                     ;[0cbd] 00
  2060   000bbe 00                                  nop                                     ;[0cbe] 00
  2061   000bbf 00                                  nop                                     ;[0cbf] 00
  2062   000bc0 00                                  nop                                     ;[0cc0] 00
  2063   000bc1 00                                  nop                                     ;[0cc1] 00
  2064   000bc2 00                                  nop                                     ;[0cc2] 00
  2065   000bc3 00                                  nop                                     ;[0cc3] 00
  2066   000bc4 00                                  nop                                     ;[0cc4] 00
  2067   000bc5 00                                  nop                                     ;[0cc5] 00
  2068   000bc6 00                                  nop                                     ;[0cc6] 00
  2069   000bc7 00                                  nop                                     ;[0cc7] 00
  2070   000bc8 00                                  nop                                     ;[0cc8] 00
  2071   000bc9 00                                  nop                                     ;[0cc9] 00
  2072   000bca 00                                  nop                                     ;[0cca] 00
  2073   000bcb 00                                  nop                                     ;[0ccb] 00
  2074   000bcc 00                                  nop                                     ;[0ccc] 00
  2075   000bcd 00                                  nop                                     ;[0ccd] 00
  2076   000bce 00                                  nop                                     ;[0cce] 00
  2077   000bcf 00                                  nop                                     ;[0ccf] 00
  2078   000bd0 00                                  nop                                     ;[0cd0] 00
  2079   000bd1 00                                  nop                                     ;[0cd1] 00
  2080   000bd2 00                                  nop                                     ;[0cd2] 00
  2081   000bd3 00                                  nop                                     ;[0cd3] 00
  2082   000bd4 00                                  nop                                     ;[0cd4] 00
  2083   000bd5 00                                  nop                                     ;[0cd5] 00
  2084   000bd6 00                                  nop                                     ;[0cd6] 00
  2085   000bd7 00                                  nop                                     ;[0cd7] 00
  2086   000bd8 00                                  nop                                     ;[0cd8] 00
  2087   000bd9 00                                  nop                                     ;[0cd9] 00
  2088   000bda 00                                  nop                                     ;[0cda] 00
  2089   000bdb 00                                  nop                                     ;[0cdb] 00
  2090   000bdc 00                                  nop                                     ;[0cdc] 00
  2091   000bdd 00                                  nop                                     ;[0cdd] 00
  2092   000bde 00                                  nop                                     ;[0cde] 00
  2093   000bdf 00                                  nop                                     ;[0cdf] 00
  2094   000be0 00                                  nop                                     ;[0ce0] 00
  2095   000be1 00                                  nop                                     ;[0ce1] 00
  2096   000be2 00                                  nop                                     ;[0ce2] 00
  2097   000be3 00                                  nop                                     ;[0ce3] 00
  2098   000be4 00                                  nop                                     ;[0ce4] 00
  2099   000be5 00                                  nop                                     ;[0ce5] 00
  2100   000be6 00                                  nop                                     ;[0ce6] 00
  2101   000be7 00                                  nop                                     ;[0ce7] 00
  2102   000be8 00                                  nop                                     ;[0ce8] 00
  2103   000be9 00                                  nop                                     ;[0ce9] 00
  2104   000bea 00                                  nop                                     ;[0cea] 00
  2105   000beb 00                                  nop                                     ;[0ceb] 00
  2106   000bec 00                                  nop                                     ;[0cec] 00
  2107   000bed 00                                  nop                                     ;[0ced] 00
  2108   000bee 00                                  nop                                     ;[0cee] 00
  2109   000bef 00                                  nop                                     ;[0cef] 00
  2110   000bf0 00                                  nop                                     ;[0cf0] 00
  2111   000bf1 00                                  nop                                     ;[0cf1] 00
  2112   000bf2 00                                  nop                                     ;[0cf2] 00
  2113   000bf3 00                                  nop                                     ;[0cf3] 00
  2114   000bf4 00                                  nop                                     ;[0cf4] 00
  2115   000bf5 00                                  nop                                     ;[0cf5] 00
  2116   000bf6 00                                  nop                                     ;[0cf6] 00
  2117   000bf7 00                                  nop                                     ;[0cf7] 00
  2118   000bf8 00                                  nop                                     ;[0cf8] 00
  2119   000bf9 00                                  nop                                     ;[0cf9] 00
  2120   000bfa 00                                  nop                                     ;[0cfa] 00
  2121   000bfb 00                                  nop                                     ;[0cfb] 00
  2122   000bfc 00                                  nop                                     ;[0cfc] 00
  2123   000bfd 00                                  nop                                     ;[0cfd] 00
  2124   000bfe 00                                  nop                                     ;[0cfe] 00
  2125   000bff 00                                  nop                                     ;[0cff] 00
  2126                          
